	.file	"test.c"
	.intel_syntax noprefix
	.text
.Ltext0:
	.section	.rodata.str1.1,"aMS",@progbits,1
.LC0:
	.string	"ID: %s\nYour private key: "
.LC1:
	.string	"%02x"
	.text
	.globl	default_print_info
	.type	default_print_info, @function
default_print_info:
.LVL0:
.LFB27:
	.file 1 "test.c"
	.loc 1 173 46 view -0
	
    .cfi_startproc
    # save arguments
    push rdi
    push rsi
    push rdx
    push rcx
    push r8
    push r9

    call stackshield_get_old_rip@PLT
    mov rdi, rax
    call stackshield_func_enter@PLT

    # restore arguments
    pop r9
    pop r8
    pop rcx
    pop rdx
    pop rsi
    pop rdi
	.loc 1 173 46 is_stmt 0 view .LVU1
	push	r12
	.cfi_def_cfa_offset 16
	.cfi_offset 12, -16
	push	rbp
	.cfi_def_cfa_offset 24
	.cfi_offset 6, -24
	push	rbx
	.cfi_def_cfa_offset 32
	.cfi_offset 3, -32
	sub	rsp, 16
	.cfi_def_cfa_offset 48
	mov	rbp, rdi
	.loc 1 173 46 view .LVU2
	mov	rax, QWORD PTR fs:40
	mov	QWORD PTR 8[rsp], rax
	xor	eax, eax
	.loc 1 174 5 is_stmt 1 view .LVU3
	mov	rsi, rdi
	lea	rdi, .LC0[rip]
.LVL1:
	.loc 1 174 5 is_stmt 0 view .LVU4
	call	printf@PLT
.LVL2:
	.loc 1 175 5 is_stmt 1 view .LVU5
.LBB2:
	.loc 1 175 10 view .LVU6
	.loc 1 175 21 view .LVU7
	lea	rbx, 6[rbp]
	add	rbp, 38
.LVL3:
	.loc 1 176 9 is_stmt 0 view .LVU8
	lea	r12, .LC1[rip]
.LVL4:
.L2:
	.loc 1 176 9 is_stmt 1 discriminator 3 view .LVU9
	movzx	esi, BYTE PTR [rbx]
	mov	rdi, r12
	mov	eax, 0
	call	printf@PLT
.LVL5:
	.loc 1 175 29 discriminator 3 view .LVU10
	.loc 1 175 21 discriminator 3 view .LVU11
	add	rbx, 1
.LVL6:
	.loc 1 175 5 is_stmt 0 discriminator 3 view .LVU12
	cmp	rbx, rbp
	jne	.L2
.LBE2:
	.loc 1 178 5 is_stmt 1 view .LVU13
	mov	edi, 10
	call	putchar@PLT
.LVL7:
	.loc 1 179 1 is_stmt 0 view .LVU14
	mov	rax, QWORD PTR 8[rsp]
	xor	rax, QWORD PTR fs:40
	jne	.L6
	add	rsp, 16
	.cfi_remember_state
	.cfi_def_cfa_offset 32
	pop	rbx
	.cfi_def_cfa_offset 24
	pop	rbp
	.cfi_def_cfa_offset 16
.LVL8:
	.loc 1 179 1 view .LVU15
	pop	r12
	.cfi_def_cfa_offset 8
	
    # save return value and registers
    mov r11, rax
    push rdi
    push rsi
    push rdx
    push rcx
    push r8
    push r9


    call stackshield_get_old_rip@PLT
    mov rdi, rax
    call stackshield_func_exit@PLT

    # restore return value and registers
    mov rax, r11
    pop r9
    pop r8
    pop rcx
    pop rdx
    pop rsi
    pop rdi
    ret
.L6:
	.cfi_restore_state
	call	__stack_chk_fail@PLT
.LVL9:
	.cfi_endproc
.LFE27:
	.size	default_print_info, .-default_print_info
	.section	.rodata.str1.1
.LC2:
	.string	"TODO: implement this"
	.text
	.globl	default_view_toys
	.type	default_view_toys, @function
default_view_toys:
.LVL10:
.LFB30:
	.loc 1 218 45 is_stmt 1 view -0
	
    .cfi_startproc
    # save arguments
    push rdi
    push rsi
    push rdx
    push rcx
    push r8
    push r9

    call stackshield_get_old_rip@PLT
    mov rdi, rax
    call stackshield_func_enter@PLT

    # restore arguments
    pop r9
    pop r8
    pop rcx
    pop rdx
    pop rsi
    pop rdi
	.loc 1 218 45 is_stmt 0 view .LVU17
	push	rbx
	.cfi_def_cfa_offset 16
	.cfi_offset 3, -16
	sub	rsp, 16
	.cfi_def_cfa_offset 32
	.loc 1 218 45 view .LVU18
	mov	ebx, 40
	mov	rax, QWORD PTR fs:[rbx]
	mov	QWORD PTR 8[rsp], rax
	xor	eax, eax
	.loc 1 219 5 is_stmt 1 view .LVU19
	lea	rdi, .LC2[rip]
.LVL11:
	.loc 1 219 5 is_stmt 0 view .LVU20
	call	puts@PLT
.LVL12:
	.loc 1 220 1 view .LVU21
	mov	rax, QWORD PTR 8[rsp]
	xor	rax, QWORD PTR fs:[rbx]
	jne	.L10
	add	rsp, 16
	.cfi_remember_state
	.cfi_def_cfa_offset 16
	pop	rbx
	.cfi_def_cfa_offset 8
	
    # save return value and registers
    mov r11, rax
    push rdi
    push rsi
    push rdx
    push rcx
    push r8
    push r9


    call stackshield_get_old_rip@PLT
    mov rdi, rax
    call stackshield_func_exit@PLT

    # restore return value and registers
    mov rax, r11
    pop r9
    pop r8
    pop rcx
    pop rdx
    pop rsi
    pop rdi
    ret
.L10:
	.cfi_restore_state
	call	__stack_chk_fail@PLT
.LVL13:
	.cfi_endproc
.LFE30:
	.size	default_view_toys, .-default_view_toys
	.section	.rodata.str1.8,"aMS",@progbits,1
	.align 8
.LC3:
	.string	"TODO: make this write user to file"
	.text
	.globl	session_handler
	.type	session_handler, @function
session_handler:
.LVL14:
.LFB36:
	.loc 1 265 43 is_stmt 1 view -0
	
    .cfi_startproc
    # save arguments
    push rdi
    push rsi
    push rdx
    push rcx
    push r8
    push r9

    call stackshield_get_old_rip@PLT
    mov rdi, rax
    call stackshield_func_enter@PLT

    # restore arguments
    pop r9
    pop r8
    pop rcx
    pop rdx
    pop rsi
    pop rdi
	.loc 1 265 43 is_stmt 0 view .LVU23
	push	rbx
	.cfi_def_cfa_offset 16
	.cfi_offset 3, -16
	sub	rsp, 16
	.cfi_def_cfa_offset 32
	.loc 1 265 43 view .LVU24
	mov	ebx, 40
	mov	rax, QWORD PTR fs:[rbx]
	mov	QWORD PTR 8[rsp], rax
	xor	eax, eax
	.loc 1 266 5 is_stmt 1 view .LVU25
	lea	rdi, .LC3[rip]
.LVL15:
	.loc 1 266 5 is_stmt 0 view .LVU26
	call	puts@PLT
.LVL16:
	.loc 1 267 5 is_stmt 1 view .LVU27
	.loc 1 268 1 is_stmt 0 view .LVU28
	mov	rax, QWORD PTR 8[rsp]
	xor	rax, QWORD PTR fs:[rbx]
	jne	.L14
	add	rsp, 16
	.cfi_remember_state
	.cfi_def_cfa_offset 16
	pop	rbx
	.cfi_def_cfa_offset 8
	
    # save return value and registers
    mov r11, rax
    push rdi
    push rsi
    push rdx
    push rcx
    push r8
    push r9


    call stackshield_get_old_rip@PLT
    mov rdi, rax
    call stackshield_func_exit@PLT

    # restore return value and registers
    mov rax, r11
    pop r9
    pop r8
    pop rcx
    pop rdx
    pop rsi
    pop rdi
    ret
.L14:
	.cfi_restore_state
	call	__stack_chk_fail@PLT
.LVL17:
	.cfi_endproc
.LFE36:
	.size	session_handler, .-session_handler
	.section	.rodata.str1.1
.LC4:
	.string	"Name: "
.LC5:
	.string	"\nDescription: "
.LC6:
	.string	"Encrypting..."
	.section	.rodata.str1.8
	.align 8
.LC7:
	.string	"SAVING TO FILE NOT IMPLEMENTED YET!!!"
	.section	.rodata.str1.1
.LC8:
	.string	"Done"
	.text
	.globl	default_design_toy
	.type	default_design_toy, @function
default_design_toy:
.LVL18:
.LFB29:
	.loc 1 201 46 is_stmt 1 view -0
	
    .cfi_startproc
    # save arguments
    push rdi
    push rsi
    push rdx
    push rcx
    push r8
    push r9

    call stackshield_get_old_rip@PLT
    mov rdi, rax
    call stackshield_func_enter@PLT

    # restore arguments
    pop r9
    pop r8
    pop rcx
    pop rdx
    pop rsi
    pop rdi
	.loc 1 201 46 is_stmt 0 view .LVU30
	push	rbp
	.cfi_def_cfa_offset 16
	.cfi_offset 6, -16
	push	rbx
	.cfi_def_cfa_offset 24
	.cfi_offset 3, -24
	sub	rsp, 24
	.cfi_def_cfa_offset 48
	.loc 1 201 46 view .LVU31
	mov	rax, QWORD PTR fs:40
	mov	QWORD PTR 8[rsp], rax
	xor	eax, eax
	.loc 1 202 5 is_stmt 1 view .LVU32
	.loc 1 202 13 is_stmt 0 view .LVU33
	mov	rbp, QWORD PTR 72[rdi]
	.loc 1 202 8 view .LVU34
	cmp	rbp, 99
	jbe	.L21
.LVL19:
.L15:
	.loc 1 216 1 view .LVU35
	mov	rax, QWORD PTR 8[rsp]
	xor	rax, QWORD PTR fs:40
	jne	.L22
	add	rsp, 24
	.cfi_remember_state
	.cfi_def_cfa_offset 24
	pop	rbx
	.cfi_def_cfa_offset 16
	pop	rbp
	.cfi_def_cfa_offset 8
	
    # save return value and registers
    mov r11, rax
    push rdi
    push rsi
    push rdx
    push rcx
    push r8
    push r9


    call stackshield_get_old_rip@PLT
    mov rdi, rax
    call stackshield_func_exit@PLT

    # restore return value and registers
    mov rax, r11
    pop r9
    pop r8
    pop rcx
    pop rdx
    pop rsi
    pop rdi
    ret
.LVL20:
.L21:
	.cfi_restore_state
	.loc 1 216 1 view .LVU36
	mov	rbx, rdi
	.loc 1 203 5 is_stmt 1 view .LVU37
	.loc 1 203 30 is_stmt 0 view .LVU38
	lea	rax, 1[rbp]
	mov	QWORD PTR 72[rdi], rax
	.loc 1 203 36 view .LVU39
	mov	edi, 5050
.LVL21:
	.loc 1 203 36 view .LVU40
	call	malloc@PLT
.LVL22:
	.loc 1 203 34 view .LVU41
	mov	QWORD PTR 80[rbx+rbp*8], rax
	.loc 1 205 5 is_stmt 1 view .LVU42
	lea	rdi, .LC4[rip]
	mov	eax, 0
	call	printf@PLT
.LVL23:
	.loc 1 206 5 view .LVU43
	.loc 1 206 23 is_stmt 0 view .LVU44
	mov	rax, QWORD PTR 72[rbx]
	.loc 1 206 5 view .LVU45
	mov	rsi, QWORD PTR 72[rbx+rax*8]
	mov	edx, 99
	mov	edi, 0
	call	read@PLT
.LVL24:
	.loc 1 207 5 is_stmt 1 view .LVU46
	lea	rdi, .LC5[rip]
	mov	eax, 0
	call	printf@PLT
.LVL25:
	.loc 1 208 5 view .LVU47
	.loc 1 208 23 is_stmt 0 view .LVU48
	mov	rax, QWORD PTR 72[rbx]
	.loc 1 208 43 view .LVU49
	mov	rsi, QWORD PTR 72[rbx+rax*8]
	add	rsi, 50
	.loc 1 208 5 view .LVU50
	mov	edx, 4999
	mov	edi, 0
	call	read@PLT
.LVL26:
	.loc 1 210 5 is_stmt 1 view .LVU51
	lea	rdi, .LC6[rip]
	call	puts@PLT
.LVL27:
	.loc 1 211 5 view .LVU52
.LBB3:
	.loc 1 211 10 view .LVU53
	.loc 1 211 24 view .LVU54
	.loc 1 211 17 is_stmt 0 view .LVU55
	mov	eax, 0
.LVL28:
.L17:
	.loc 1 212 9 is_stmt 1 discriminator 3 view .LVU56
	.loc 1 212 19 is_stmt 0 discriminator 3 view .LVU57
	mov	rdx, QWORD PTR 72[rbx]
	mov	rdx, QWORD PTR 72[rbx+rdx*8]
	.loc 1 212 71 discriminator 3 view .LVU58
	mov	rcx, rax
	and	ecx, 31
	.loc 1 212 56 discriminator 3 view .LVU59
	movzx	ecx, BYTE PTR 6[rbx+rcx]
	xor	BYTE PTR 50[rdx+rax], cl
	.loc 1 211 34 is_stmt 1 discriminator 3 view .LVU60
	.loc 1 211 35 is_stmt 0 discriminator 3 view .LVU61
	add	rax, 1
.LVL29:
	.loc 1 211 24 is_stmt 1 discriminator 3 view .LVU62
	.loc 1 211 5 is_stmt 0 discriminator 3 view .LVU63
	cmp	rax, 5000
	jne	.L17
.LBE3:
	.loc 1 214 5 is_stmt 1 view .LVU64
	lea	rdi, .LC7[rip]
	call	puts@PLT
.LVL30:
	.loc 1 215 5 view .LVU65
	lea	rdi, .LC8[rip]
	call	puts@PLT
.LVL31:
	jmp	.L15
.LVL32:
.L22:
	.loc 1 216 1 is_stmt 0 view .LVU66
	call	__stack_chk_fail@PLT
.LVL33:
	.cfi_endproc
.LFE29:
	.size	default_design_toy, .-default_design_toy
	.globl	a2v
	.type	a2v, @function
a2v:
.LVL34:
.LFB22:
	.loc 1 19 1 is_stmt 1 view -0
	
    .cfi_startproc
    # save arguments
    push rdi
    push rsi
    push rdx
    push rcx
    push r8
    push r9

    call stackshield_get_old_rip@PLT
    mov rdi, rax
    call stackshield_func_enter@PLT

    # restore arguments
    pop r9
    pop r8
    pop rcx
    pop rdx
    pop rsi
    pop rdi
	.loc 1 19 1 is_stmt 0 view .LVU68
	sub	rsp, 24
	.cfi_def_cfa_offset 32
	.loc 1 19 1 view .LVU69
	mov	rax, QWORD PTR fs:40
	mov	QWORD PTR 8[rsp], rax
	xor	eax, eax
	.loc 1 20 5 is_stmt 1 view .LVU70
	.loc 1 20 17 is_stmt 0 view .LVU71
	lea	eax, -48[rdi]
	.loc 1 20 8 view .LVU72
	cmp	al, 9
	jbe	.L23
	.loc 1 24 5 is_stmt 1 view .LVU73
	.loc 1 24 17 is_stmt 0 view .LVU74
	lea	eax, -97[rdi]
	.loc 1 26 21 view .LVU75
	sub	edi, 87
.LVL35:
	.loc 1 26 21 view .LVU76
	cmp	al, 6
	mov	eax, 0
	cmovb	eax, edi
.L23:
	.loc 1 29 1 view .LVU77
	mov	rdx, QWORD PTR 8[rsp]
	xor	rdx, QWORD PTR fs:40
	jne	.L29
	add	rsp, 24
	.cfi_remember_state
	.cfi_def_cfa_offset 8
	
    # save return value and registers
    mov r11, rax
    push rdi
    push rsi
    push rdx
    push rcx
    push r8
    push r9


    call stackshield_get_old_rip@PLT
    mov rdi, rax
    call stackshield_func_exit@PLT

    # restore return value and registers
    mov rax, r11
    pop r9
    pop r8
    pop rcx
    pop rdx
    pop rsi
    pop rdi
    ret
.L29:
	.cfi_restore_state
	call	__stack_chk_fail@PLT
.LVL36:
	.cfi_endproc
.LFE22:
	.size	a2v, .-a2v
	.globl	unhexlify
	.type	unhexlify, @function
unhexlify:
.LVL37:
.LFB23:
	.loc 1 32 1 is_stmt 1 view -0
	
    .cfi_startproc
    # save arguments
    push rdi
    push rsi
    push rdx
    push rcx
    push r8
    push r9

    call stackshield_get_old_rip@PLT
    mov rdi, rax
    call stackshield_func_enter@PLT

    # restore arguments
    pop r9
    pop r8
    pop rcx
    pop rdx
    pop rsi
    pop rdi
	.loc 1 32 1 is_stmt 0 view .LVU79
	push	r14
	.cfi_def_cfa_offset 16
	.cfi_offset 14, -16
	push	r13
	.cfi_def_cfa_offset 24
	.cfi_offset 13, -24
	push	r12
	.cfi_def_cfa_offset 32
	.cfi_offset 12, -32
	push	rbp
	.cfi_def_cfa_offset 40
	.cfi_offset 6, -40
	push	rbx
	.cfi_def_cfa_offset 48
	.cfi_offset 3, -48
	sub	rsp, 16
	.cfi_def_cfa_offset 64
	mov	rbp, rdi
	mov	r12, rsi
	.loc 1 32 1 view .LVU80
	mov	rax, QWORD PTR fs:40
	mov	QWORD PTR 8[rsp], rax
	xor	eax, eax
	.loc 1 33 5 is_stmt 1 view .LVU81
.LVL38:
	.loc 1 34 5 view .LVU82
.LBB4:
	.loc 1 34 10 view .LVU83
	.loc 1 34 5 is_stmt 0 view .LVU84
	mov	ebx, 0
	.loc 1 34 28 view .LVU85
	mov	r13, -1
.LVL39:
.L31:
	.loc 1 34 24 is_stmt 1 discriminator 1 view .LVU86
	.loc 1 34 28 is_stmt 0 discriminator 1 view .LVU87
	mov	eax, 0
	mov	rcx, r13
	mov	rdi, rbp
	repnz scasb
	mov	rax, rcx
	not	rax
	sub	rax, 1
	.loc 1 34 5 discriminator 1 view .LVU88
	lea	rdx, [rbx+rbx]
	cmp	rax, rdx
	jbe	.L35
	.loc 1 36 9 is_stmt 1 discriminator 3 view .LVU89
	.loc 1 36 22 is_stmt 0 discriminator 3 view .LVU90
	movsx	edi, BYTE PTR 0[rbp+rbx*2]
	call	a2v@PLT
.LVL40:
	mov	r14d, eax
	.loc 1 36 41 discriminator 3 view .LVU91
	movsx	edi, BYTE PTR 1[rbp+rbx*2]
	call	a2v@PLT
.LVL41:
	.loc 1 36 34 discriminator 3 view .LVU92
	sal	r14d, 4
	.loc 1 36 39 discriminator 3 view .LVU93
	add	r14d, eax
	mov	BYTE PTR [r12+rbx], r14b
	.loc 1 34 42 is_stmt 1 discriminator 3 view .LVU94
.LVL42:
	.loc 1 34 42 is_stmt 0 discriminator 3 view .LVU95
	add	rbx, 1
.LVL43:
	.loc 1 34 42 discriminator 3 view .LVU96
	jmp	.L31
.LVL44:
.L35:
	.loc 1 34 42 discriminator 3 view .LVU97
.LBE4:
	.loc 1 38 5 is_stmt 1 view .LVU98
	.loc 1 38 9 is_stmt 0 view .LVU99
	movsx	rsi, ebx
	.loc 1 38 13 view .LVU100
	mov	BYTE PTR [r12+rsi], 0
	.loc 1 39 1 view .LVU101
	mov	rax, QWORD PTR 8[rsp]
	xor	rax, QWORD PTR fs:40
	jne	.L36
	add	rsp, 16
	.cfi_remember_state
	.cfi_def_cfa_offset 48
	pop	rbx
	.cfi_def_cfa_offset 40
.LVL45:
	.loc 1 39 1 view .LVU102
	pop	rbp
	.cfi_def_cfa_offset 32
	pop	r12
	.cfi_def_cfa_offset 24
.LVL46:
	.loc 1 39 1 view .LVU103
	pop	r13
	.cfi_def_cfa_offset 16
	pop	r14
	.cfi_def_cfa_offset 8
	
    # save return value and registers
    mov r11, rax
    push rdi
    push rsi
    push rdx
    push rcx
    push r8
    push r9


    call stackshield_get_old_rip@PLT
    mov rdi, rax
    call stackshield_func_exit@PLT

    # restore return value and registers
    mov rax, r11
    pop r9
    pop r8
    pop rcx
    pop rdx
    pop rsi
    pop rdi
    ret
.LVL47:
.L36:
	.cfi_restore_state
	.loc 1 39 1 view .LVU104
	call	__stack_chk_fail@PLT
.LVL48:
	.cfi_endproc
.LFE23:
	.size	unhexlify, .-unhexlify
	.section	.rodata.str1.1
.LC9:
	.string	"Write new key: "
.LC10:
	.string	"%89s"
.LC11:
	.string	"\nUpdating encryption..."
.LC12:
	.string	"Changes applied!"
	.text
	.globl	default_change_key
	.type	default_change_key, @function
default_change_key:
.LVL49:
.LFB28:
	.loc 1 181 46 is_stmt 1 view -0
	
    .cfi_startproc
    # save arguments
    push rdi
    push rsi
    push rdx
    push rcx
    push r8
    push r9

    call stackshield_get_old_rip@PLT
    mov rdi, rax
    call stackshield_func_enter@PLT

    # restore arguments
    pop r9
    pop r8
    pop rcx
    pop rdx
    pop rsi
    pop rdi
	.loc 1 181 46 is_stmt 0 view .LVU106
	push	rbp
	.cfi_def_cfa_offset 16
	.cfi_offset 6, -16
	push	rbx
	.cfi_def_cfa_offset 24
	.cfi_offset 3, -24
	sub	rsp, 168
	.cfi_def_cfa_offset 192
	mov	rbx, rdi
	.loc 1 181 46 view .LVU107
	mov	rax, QWORD PTR fs:40
	mov	QWORD PTR 152[rsp], rax
	xor	eax, eax
	.loc 1 182 5 is_stmt 1 view .LVU108
	.loc 1 183 5 view .LVU109
	.loc 1 184 5 view .LVU110
	lea	rdi, .LC9[rip]
.LVL50:
	.loc 1 184 5 is_stmt 0 view .LVU111
	call	printf@PLT
.LVL51:
	.loc 1 185 5 is_stmt 1 view .LVU112
	lea	rbp, 48[rsp]
	mov	rsi, rbp
	lea	rdi, .LC10[rip]
	mov	eax, 0
	call	__isoc99_scanf@PLT
.LVL52:
	.loc 1 186 5 view .LVU113
	mov	rsi, rsp
	mov	rdi, rbp
	call	unhexlify@PLT
.LVL53:
	.loc 1 188 5 view .LVU114
	lea	rdi, .LC11[rip]
	call	puts@PLT
.LVL54:
	.loc 1 189 5 view .LVU115
.LBB5:
	.loc 1 189 10 view .LVU116
	.loc 1 189 24 view .LVU117
	.loc 1 189 5 is_stmt 0 view .LVU118
	cmp	QWORD PTR 72[rbx], 0
	je	.L38
	lea	rdi, 80[rbx]
	.loc 1 189 17 view .LVU119
	mov	r8d, 0
.LVL55:
.L39:
.LBB6:
	.loc 1 190 28 is_stmt 1 view .LVU120
	.loc 1 190 21 is_stmt 0 view .LVU121
	mov	eax, 0
.LVL56:
.L40:
	.loc 1 191 13 is_stmt 1 discriminator 3 view .LVU122
	.loc 1 191 23 is_stmt 0 discriminator 3 view .LVU123
	mov	rcx, QWORD PTR [rdi]
	.loc 1 191 58 discriminator 3 view .LVU124
	mov	rsi, rax
	and	esi, 31
	.loc 1 191 43 discriminator 3 view .LVU125
	movzx	edx, BYTE PTR 6[rbx+rsi]
	xor	dl, BYTE PTR [rsp+rsi]
	xor	BYTE PTR 50[rcx+rax], dl
	.loc 1 190 38 is_stmt 1 discriminator 3 view .LVU126
	.loc 1 190 39 is_stmt 0 discriminator 3 view .LVU127
	add	rax, 1
.LVL57:
	.loc 1 190 28 is_stmt 1 discriminator 3 view .LVU128
	.loc 1 190 9 is_stmt 0 discriminator 3 view .LVU129
	cmp	rax, 5000
	jne	.L40
.LBE6:
	.loc 1 189 44 is_stmt 1 discriminator 2 view .LVU130
	.loc 1 189 45 is_stmt 0 discriminator 2 view .LVU131
	add	r8, 1
.LVL58:
	.loc 1 189 24 is_stmt 1 discriminator 2 view .LVU132
	add	rdi, 8
	.loc 1 189 5 is_stmt 0 discriminator 2 view .LVU133
	cmp	QWORD PTR 72[rbx], r8
	ja	.L39
.LVL59:
.L38:
	.loc 1 189 5 discriminator 2 view .LVU134
.LBE5:
.LBB7:
	.loc 1 195 24 is_stmt 1 view .LVU135
	.loc 1 195 17 is_stmt 0 view .LVU136
	mov	eax, 0
.LVL60:
.L41:
	.loc 1 196 9 is_stmt 1 discriminator 3 view .LVU137
	.loc 1 196 22 is_stmt 0 discriminator 3 view .LVU138
	movzx	edx, BYTE PTR [rsp+rax]
	mov	BYTE PTR 6[rbx+rax], dl
	.loc 1 195 32 is_stmt 1 discriminator 3 view .LVU139
	.loc 1 195 33 is_stmt 0 discriminator 3 view .LVU140
	add	rax, 1
.LVL61:
	.loc 1 195 24 is_stmt 1 discriminator 3 view .LVU141
	.loc 1 195 5 is_stmt 0 discriminator 3 view .LVU142
	cmp	rax, 36
	jne	.L41
.LBE7:
	.loc 1 198 5 is_stmt 1 view .LVU143
	lea	rdi, .LC12[rip]
	call	puts@PLT
.LVL62:
	.loc 1 199 1 is_stmt 0 view .LVU144
	mov	rax, QWORD PTR 152[rsp]
	xor	rax, QWORD PTR fs:40
	jne	.L46
	add	rsp, 168
	.cfi_remember_state
	.cfi_def_cfa_offset 24
	pop	rbx
	.cfi_def_cfa_offset 16
.LVL63:
	.loc 1 199 1 view .LVU145
	pop	rbp
	.cfi_def_cfa_offset 8
	
    # save return value and registers
    mov r11, rax
    push rdi
    push rsi
    push rdx
    push rcx
    push r8
    push r9


    call stackshield_get_old_rip@PLT
    mov rdi, rax
    call stackshield_func_exit@PLT

    # restore return value and registers
    mov rax, r11
    pop r9
    pop r8
    pop rcx
    pop rdx
    pop rsi
    pop rdi
    ret
.LVL64:
.L46:
	.cfi_restore_state
	.loc 1 199 1 view .LVU146
	call	__stack_chk_fail@PLT
.LVL65:
	.cfi_endproc
.LFE28:
	.size	default_change_key, .-default_change_key
	.globl	init
	.type	init, @function
init:
.LFB24:
	.loc 1 72 13 is_stmt 1 view -0
	
    .cfi_startproc
    # save arguments
    push rdi
    push rsi
    push rdx
    push rcx
    push r8
    push r9

    call stackshield_get_old_rip@PLT
    mov rdi, rax
    call stackshield_func_enter@PLT

    # restore arguments
    pop r9
    pop r8
    pop rcx
    pop rdx
    pop rsi
    pop rdi
	push	rbp
	.cfi_def_cfa_offset 16
	.cfi_offset 6, -16
	push	rbx
	.cfi_def_cfa_offset 24
	.cfi_offset 3, -24
	sub	rsp, 24
	.cfi_def_cfa_offset 48
	.loc 1 72 13 is_stmt 0 view .LVU148
	mov	rax, QWORD PTR fs:40
	mov	QWORD PTR 8[rsp], rax
	xor	eax, eax
	.loc 1 73 5 is_stmt 1 view .LVU149
	mov	rbp, QWORD PTR stdin@GOTPCREL[rip]
	mov	ecx, 0
	mov	edx, 2
	mov	esi, 0
	mov	rdi, QWORD PTR 0[rbp]
	call	setvbuf@PLT
.LVL66:
	.loc 1 74 5 view .LVU150
	mov	rbx, QWORD PTR stdout@GOTPCREL[rip]
	mov	ecx, 0
	mov	edx, 2
	mov	esi, 0
	mov	rdi, QWORD PTR [rbx]
	call	setvbuf@PLT
.LVL67:
	.loc 1 75 5 view .LVU151
	mov	ecx, 0
	mov	edx, 2
	mov	esi, 0
	mov	rax, QWORD PTR stderr@GOTPCREL[rip]
	mov	rdi, QWORD PTR [rax]
	call	setvbuf@PLT
.LVL68:
	.loc 1 77 5 view .LVU152
	mov	rdx, QWORD PTR 0[rbp]
	mov	rsi, QWORD PTR [rbx]
	mov	edi, 0
	call	newterm@PLT
.LVL69:
	.loc 1 78 5 view .LVU153
	call	start_color@PLT
.LVL70:
	.loc 1 79 5 view .LVU154
	mov	edx, 0
	mov	esi, 1
	mov	edi, 1
	call	init_pair@PLT
.LVL71:
	.loc 1 80 5 view .LVU155
	mov	edx, 0
	mov	esi, 4
	mov	edi, 2
	call	init_pair@PLT
.LVL72:
	.loc 1 81 5 view .LVU156
	mov	edx, 0
	mov	esi, 5
	mov	edi, 3
	call	init_pair@PLT
.LVL73:
	.loc 1 82 5 view .LVU157
	mov	edx, 0
	mov	esi, 7
	mov	edi, 4
	call	init_pair@PLT
.LVL74:
	.loc 1 83 5 view .LVU158
	mov	edx, 0
	mov	esi, 2
	mov	edi, 5
	call	init_pair@PLT
.LVL75:
	.loc 1 85 5 view .LVU159
	mov	rbx, QWORD PTR stdscr@GOTPCREL[rip]
	mov	esi, 1280
	mov	rdi, QWORD PTR [rbx]
	call	wbkgd@PLT
.LVL76:
	.loc 1 86 5 view .LVU160
	mov	rax, QWORD PTR [rbx]
	test	rax, rax
	je	.L48
	.loc 1 86 5 is_stmt 0 discriminator 1 view .LVU161
	movsx	edx, WORD PTR 4[rax]
	add	edx, 1
	mov	rcx, QWORD PTR terminal_rows@GOTPCREL[rip]
	mov	DWORD PTR [rcx], edx
	movsx	eax, WORD PTR 6[rax]
	add	eax, 1
.L49:
	.loc 1 86 5 discriminator 8 view .LVU162
	mov	rdx, QWORD PTR terminal_cols@GOTPCREL[rip]
	mov	DWORD PTR [rdx], eax
	.loc 1 87 1 discriminator 8 view .LVU163
	mov	rax, QWORD PTR 8[rsp]
	xor	rax, QWORD PTR fs:40
	jne	.L53
	.loc 1 87 1 view .LVU164
	add	rsp, 24
	.cfi_remember_state
	.cfi_def_cfa_offset 24
	pop	rbx
	.cfi_def_cfa_offset 16
	pop	rbp
	.cfi_def_cfa_offset 8
	
    # save return value and registers
    mov r11, rax
    push rdi
    push rsi
    push rdx
    push rcx
    push r8
    push r9


    call stackshield_get_old_rip@PLT
    mov rdi, rax
    call stackshield_func_exit@PLT

    # restore return value and registers
    mov rax, r11
    pop r9
    pop r8
    pop rcx
    pop rdx
    pop rsi
    pop rdi
    ret
.L48:
	.cfi_restore_state
	.loc 1 86 5 view .LVU165
	mov	rax, QWORD PTR terminal_rows@GOTPCREL[rip]
	mov	DWORD PTR [rax], -1
	mov	eax, -1
	jmp	.L49
.L53:
	.loc 1 87 1 view .LVU166
	call	__stack_chk_fail@PLT
.LVL77:
	.cfi_endproc
.LFE24:
	.size	init, .-init
	.globl	title
	.type	title, @function
title:
.LVL78:
.LFB25:
	.loc 1 89 32 is_stmt 1 view -0
	
    .cfi_startproc
    # save arguments
    push rdi
    push rsi
    push rdx
    push rcx
    push r8
    push r9

    call stackshield_get_old_rip@PLT
    mov rdi, rax
    call stackshield_func_enter@PLT

    # restore arguments
    pop r9
    pop r8
    pop rcx
    pop rdx
    pop rsi
    pop rdi
	.loc 1 89 32 is_stmt 0 view .LVU168
	push	rbp
	.cfi_def_cfa_offset 16
	.cfi_offset 6, -16
	push	rbx
	.cfi_def_cfa_offset 24
	.cfi_offset 3, -24
	sub	rsp, 24
	.cfi_def_cfa_offset 48
	mov	rbx, rdi
	.loc 1 89 32 view .LVU169
	mov	rax, QWORD PTR fs:40
	mov	QWORD PTR 8[rsp], rax
	xor	eax, eax
	.loc 1 90 5 is_stmt 1 view .LVU170
	mov	rcx, -1
	repnz scasb
.LVL79:
	.loc 1 90 5 is_stmt 0 view .LVU171
	mov	rax, QWORD PTR terminal_cols@GOTPCREL[rip]
	movsx	rax, DWORD PTR [rax]
	lea	rdx, 2[rcx+rax]
	shr	rdx
	mov	rbp, QWORD PTR stdscr@GOTPCREL[rip]
	mov	rdi, QWORD PTR 0[rbp]
	call	wmove@PLT
.LVL80:
	.loc 1 91 5 is_stmt 1 view .LVU172
	mov	edx, 0
	mov	esi, 2097152
	mov	rdi, QWORD PTR 0[rbp]
	call	wattr_on@PLT
.LVL81:
	.loc 1 92 5 view .LVU173
.LBB8:
	.loc 1 92 10 view .LVU174
	.loc 1 92 21 view .LVU175
	.loc 1 92 24 is_stmt 0 view .LVU176
	movzx	esi, BYTE PTR [rbx]
	.loc 1 92 5 view .LVU177
	test	sil, sil
	je	.L55
	add	rbx, 1
	.loc 1 93 9 view .LVU178
	mov	rbp, QWORD PTR stdscr@GOTPCREL[rip]
.LVL82:
.L56:
	.loc 1 93 9 is_stmt 1 discriminator 3 view .LVU179
	movsx	esi, sil
	mov	rdi, QWORD PTR 0[rbp]
	call	waddch@PLT
.LVL83:
	.loc 1 94 9 discriminator 3 view .LVU180
	mov	edi, 50
	call	usleep@PLT
.LVL84:
	.loc 1 95 9 discriminator 3 view .LVU181
	mov	rdi, QWORD PTR 0[rbp]
	call	wrefresh@PLT
.LVL85:
	.loc 1 92 37 discriminator 3 view .LVU182
	.loc 1 92 21 discriminator 3 view .LVU183
	add	rbx, 1
.LVL86:
	.loc 1 92 24 is_stmt 0 discriminator 3 view .LVU184
	movzx	esi, BYTE PTR -1[rbx]
	.loc 1 92 5 discriminator 3 view .LVU185
	test	sil, sil
	jne	.L56
.L55:
	.loc 1 92 5 discriminator 3 view .LVU186
.LBE8:
	.loc 1 97 5 is_stmt 1 view .LVU187
	mov	edx, 0
	mov	esi, 2097152
	mov	rax, QWORD PTR stdscr@GOTPCREL[rip]
	mov	rdi, QWORD PTR [rax]
	call	wattr_off@PLT
.LVL87:
	.loc 1 98 1 is_stmt 0 view .LVU188
	mov	rax, QWORD PTR 8[rsp]
	xor	rax, QWORD PTR fs:40
	jne	.L60
	add	rsp, 24
	.cfi_remember_state
	.cfi_def_cfa_offset 24
	pop	rbx
	.cfi_def_cfa_offset 16
	pop	rbp
	.cfi_def_cfa_offset 8
	
    # save return value and registers
    mov r11, rax
    push rdi
    push rsi
    push rdx
    push rcx
    push r8
    push r9


    call stackshield_get_old_rip@PLT
    mov rdi, rax
    call stackshield_func_exit@PLT

    # restore return value and registers
    mov rax, r11
    pop r9
    pop r8
    pop rcx
    pop rdx
    pop rsi
    pop rdi
    ret
.L60:
	.cfi_restore_state
	call	__stack_chk_fail@PLT
.LVL88:
	.cfi_endproc
.LFE25:
	.size	title, .-title
	.section	.rodata.str1.8
	.align 8
.LC13:
	.string	"Press any key to proceed to the login interface..."
	.text
	.globl	print_logo
	.type	print_logo, @function
print_logo:
.LFB26:
	.loc 1 100 19 is_stmt 1 view -0
	
    .cfi_startproc
    # save arguments
    push rdi
    push rsi
    push rdx
    push rcx
    push r8
    push r9

    call stackshield_get_old_rip@PLT
    mov rdi, rax
    call stackshield_func_enter@PLT

    # restore arguments
    pop r9
    pop r8
    pop rcx
    pop rdx
    pop rsi
    pop rdi
	push	r15
	.cfi_def_cfa_offset 16
	.cfi_offset 15, -16
	push	r14
	.cfi_def_cfa_offset 24
	.cfi_offset 14, -24
	push	r13
	.cfi_def_cfa_offset 32
	.cfi_offset 13, -32
	push	r12
	.cfi_def_cfa_offset 40
	.cfi_offset 12, -40
	push	rbp
	.cfi_def_cfa_offset 48
	.cfi_offset 6, -48
	push	rbx
	.cfi_def_cfa_offset 56
	.cfi_offset 3, -56
	sub	rsp, 88
	.cfi_def_cfa_offset 144
	.loc 1 100 19 is_stmt 0 view .LVU190
	mov	rax, QWORD PTR fs:40
	mov	QWORD PTR 72[rsp], rax
	xor	eax, eax
	.loc 1 101 5 is_stmt 1 view .LVU191
	.loc 1 101 10 is_stmt 0 view .LVU192
	movabs	rax, 7020395433179637827
	movabs	rdx, 7306916047138660467
	mov	QWORD PTR [rsp], rax
	mov	QWORD PTR 8[rsp], rdx
	movabs	rax, 8320773185401152877
	mov	QWORD PTR 16[rsp], rax
	mov	DWORD PTR 24[rsp], 7169396
	.loc 1 102 5 is_stmt 1 view .LVU193
	.loc 1 102 10 is_stmt 0 view .LVU194
	movabs	rax, 3472893377595401593
	movabs	rdx, 8243105118546305078
	mov	QWORD PTR 32[rsp], rax
	mov	QWORD PTR 40[rsp], rdx
	movabs	rax, 8101813437696664608
	mov	QWORD PTR 48[rsp], rax
	mov	DWORD PTR 56[rsp], 1953391981
	mov	WORD PTR 60[rsp], 41
	.loc 1 103 5 is_stmt 1 view .LVU195
	mov	rdi, rsp
	mov	esi, 0
	call	title@PLT
.LVL89:
	.loc 1 104 5 view .LVU196
	lea	rdi, 32[rsp]
	mov	esi, 1
	call	title@PLT
.LVL90:
	.loc 1 106 5 view .LVU197
	.loc 1 106 11 is_stmt 0 view .LVU198
	mov	edi, 0
	call	time@PLT
.LVL91:
	mov	rdi, rax
	.loc 1 106 5 view .LVU199
	call	srand@PLT
.LVL92:
	.loc 1 107 5 is_stmt 1 view .LVU200
	.loc 1 108 5 view .LVU201
	.loc 1 109 5 view .LVU202
	mov	rax, QWORD PTR terminal_cols@GOTPCREL[rip]
	mov	edx, DWORD PTR [rax]
	lea	eax, -60[rdx]
	mov	edx, eax
	shr	edx, 31
	add	edx, eax
	sar	edx
	mov	esi, 2
	mov	rax, QWORD PTR stdscr@GOTPCREL[rip]
	mov	rdi, QWORD PTR [rax]
	call	wmove@PLT
.LVL93:
	.loc 1 110 5 view .LVU203
.LBB9:
	.loc 1 110 10 view .LVU204
	.loc 1 110 21 view .LVU205
	.loc 1 110 25 is_stmt 0 view .LVU206
	mov	rax, QWORD PTR logo@GOTPCREL[rip]
	movzx	eax, BYTE PTR [rax]
	.loc 1 110 5 view .LVU207
	test	al, al
	je	.L62
	mov	rbx, QWORD PTR logo@GOTPCREL[rip]
.LBB10:
	.loc 1 112 13 view .LVU208
	mov	r12d, -1
	jmp	.L72
.LVL94:
.L77:
	.loc 1 112 13 is_stmt 1 view .LVU209
	mov	rax, QWORD PTR stdscr@GOTPCREL[rip]
	mov	rdi, QWORD PTR [rax]
	mov	ebp, r12d
.LVL95:
	.loc 1 112 13 is_stmt 0 view .LVU210
	test	rdi, rdi
	je	.L64
	.loc 1 112 13 discriminator 1 view .LVU211
	movsx	ebp, WORD PTR [rdi]
.L64:
.LVL96:
	.loc 1 113 13 is_stmt 1 discriminator 4 view .LVU212
	mov	rax, QWORD PTR terminal_cols@GOTPCREL[rip]
	mov	edx, DWORD PTR [rax]
	lea	eax, -60[rdx]
	mov	edx, eax
	shr	edx, 31
	add	edx, eax
	sar	edx
	lea	esi, 1[rbp]
	call	wmove@PLT
.LVL97:
	.loc 1 114 13 discriminator 4 view .LVU213
	jmp	.L65
.LVL98:
.L78:
	.loc 1 118 9 is_stmt 0 view .LVU214
	cmp	sil, 10
	je	.L68
	cmp	sil, 37
	jne	.L70
	.loc 1 125 17 is_stmt 1 view .LVU215
	mov	r13, QWORD PTR stdscr@GOTPCREL[rip]
	mov	edx, 0
	mov	esi, 1048576
	mov	rdi, QWORD PTR 0[r13]
	call	wattr_on@PLT
.LVL99:
	.loc 1 126 17 view .LVU216
	movsx	esi, BYTE PTR [rbx]
	mov	rdi, QWORD PTR 0[r13]
	call	waddch@PLT
.LVL100:
	.loc 1 127 17 view .LVU217
	mov	edx, 0
	mov	esi, 1048576
	mov	rdi, QWORD PTR 0[r13]
	call	wattr_off@PLT
.LVL101:
	.loc 1 128 17 view .LVU218
.L68:
	.loc 1 145 9 view .LVU219
	mov	edi, 2
	call	usleep@PLT
.LVL102:
	.loc 1 146 9 view .LVU220
	mov	rax, QWORD PTR stdscr@GOTPCREL[rip]
	mov	rdi, QWORD PTR [rax]
	call	wrefresh@PLT
.LVL103:
.L65:
	.loc 1 146 9 is_stmt 0 view .LVU221
.LBE10:
	.loc 1 110 38 is_stmt 1 discriminator 2 view .LVU222
	.loc 1 110 21 discriminator 2 view .LVU223
	add	rbx, 1
.LVL104:
	.loc 1 110 25 is_stmt 0 discriminator 2 view .LVU224
	movzx	eax, BYTE PTR [rbx]
	.loc 1 110 5 discriminator 2 view .LVU225
	test	al, al
	je	.L62
.L72:
.LVL105:
.LBB11:
	.loc 1 111 8 is_stmt 1 view .LVU226
	.loc 1 111 11 is_stmt 0 view .LVU227
	cmp	al, 10
	je	.L77
	.loc 1 116 8 is_stmt 1 view .LVU228
	.loc 1 116 20 is_stmt 0 view .LVU229
	call	rand@PLT
.LVL106:
	.loc 1 116 27 view .LVU230
	movsx	rdx, eax
	imul	rdx, rdx, 1431655766
	shr	rdx, 32
	mov	ecx, eax
	sar	ecx, 31
	sub	edx, ecx
	lea	edx, [rdx+rdx*2]
	sub	eax, edx
	.loc 1 116 12 view .LVU231
	add	eax, 1
.LVL107:
	.loc 1 118 9 is_stmt 1 view .LVU232
	.loc 1 118 21 is_stmt 0 view .LVU233
	movzx	esi, BYTE PTR [rbx]
	.loc 1 118 9 view .LVU234
	cmp	sil, 42
	je	.L66
	jle	.L78
	mov	edx, esi
	and	edx, -33
	cmp	dl, 79
	je	.L71
	cmp	sil, 64
	jne	.L70
	.loc 1 120 17 is_stmt 1 view .LVU235
	sal	eax, 8
.LVL108:
	.loc 1 120 17 is_stmt 0 view .LVU236
	movzx	r13d, ax
	or	r13d, 524288
	mov	r15, QWORD PTR stdscr@GOTPCREL[rip]
	mov	edx, 0
	mov	esi, r13d
	mov	rdi, QWORD PTR [r15]
	call	wattr_on@PLT
.LVL109:
	.loc 1 121 17 is_stmt 1 view .LVU237
	movsx	esi, BYTE PTR [rbx]
	mov	rdi, QWORD PTR [r15]
	call	waddch@PLT
.LVL110:
	.loc 1 122 17 view .LVU238
	mov	edx, 0
	mov	esi, r13d
	mov	rdi, QWORD PTR [r15]
	call	wattr_off@PLT
.LVL111:
	.loc 1 123 17 view .LVU239
	jmp	.L68
.LVL112:
.L71:
	.loc 1 131 17 view .LVU240
	sal	eax, 8
.LVL113:
	.loc 1 131 17 is_stmt 0 view .LVU241
	movzx	r13d, ax
	or	r13d, 2097152
	mov	r15, QWORD PTR stdscr@GOTPCREL[rip]
	mov	edx, 0
	mov	esi, r13d
	mov	rdi, QWORD PTR [r15]
	call	wattr_on@PLT
.LVL114:
	.loc 1 132 17 is_stmt 1 view .LVU242
	movsx	esi, BYTE PTR [rbx]
	mov	rdi, QWORD PTR [r15]
	call	waddch@PLT
.LVL115:
	.loc 1 133 17 view .LVU243
	mov	edx, 0
	mov	esi, r13d
	mov	rdi, QWORD PTR [r15]
	call	wattr_off@PLT
.LVL116:
	.loc 1 134 17 view .LVU244
	jmp	.L68
.LVL117:
.L66:
	.loc 1 136 17 view .LVU245
	mov	r13, QWORD PTR stdscr@GOTPCREL[rip]
	mov	edx, 0
	mov	esi, 1024
	mov	rdi, QWORD PTR 0[r13]
	call	wattr_on@PLT
.LVL118:
	.loc 1 137 17 view .LVU246
	movsx	esi, BYTE PTR [rbx]
	mov	rdi, QWORD PTR 0[r13]
	call	waddch@PLT
.LVL119:
	.loc 1 138 17 view .LVU247
	mov	edx, 0
	mov	esi, 1024
	mov	rdi, QWORD PTR 0[r13]
	call	wattr_off@PLT
.LVL120:
	jmp	.L68
.LVL121:
.L70:
	.loc 1 142 17 view .LVU248
	movsx	esi, sil
	mov	rax, QWORD PTR stdscr@GOTPCREL[rip]
.LVL122:
	.loc 1 142 17 is_stmt 0 view .LVU249
	mov	rdi, QWORD PTR [rax]
	call	waddch@PLT
.LVL123:
	.loc 1 143 17 is_stmt 1 view .LVU250
	jmp	.L68
.LVL124:
.L62:
	.loc 1 143 17 is_stmt 0 view .LVU251
.LBE11:
.LBE9:
	.loc 1 148 5 is_stmt 1 view .LVU252
	lea	esi, 2[rbp]
	mov	rbx, QWORD PTR stdscr@GOTPCREL[rip]
	mov	edx, 0
	mov	rdi, QWORD PTR [rbx]
	call	wmove@PLT
.LVL125:
	.loc 1 149 5 view .LVU253
	lea	rdi, .LC13[rip]
	mov	eax, 0
	call	printw@PLT
.LVL126:
	.loc 1 151 5 view .LVU254
	mov	rdi, QWORD PTR [rbx]
	call	wgetch@PLT
.LVL127:
	.loc 1 152 5 view .LVU255
	call	endwin@PLT
.LVL128:
	.loc 1 153 1 is_stmt 0 view .LVU256
	mov	rax, QWORD PTR 72[rsp]
	xor	rax, QWORD PTR fs:40
	jne	.L79
	.loc 1 153 1 view .LVU257
	add	rsp, 88
	.cfi_remember_state
	.cfi_def_cfa_offset 56
	pop	rbx
	.cfi_def_cfa_offset 48
	pop	rbp
	.cfi_def_cfa_offset 40
.LVL129:
	.loc 1 153 1 view .LVU258
	pop	r12
	.cfi_def_cfa_offset 32
	pop	r13
	.cfi_def_cfa_offset 24
	pop	r14
	.cfi_def_cfa_offset 16
	pop	r15
	.cfi_def_cfa_offset 8
	
    # save return value and registers
    mov r11, rax
    push rdi
    push rsi
    push rdx
    push rcx
    push r8
    push r9


    call stackshield_get_old_rip@PLT
    mov rdi, rax
    call stackshield_func_exit@PLT

    # restore return value and registers
    mov rax, r11
    pop r9
    pop r8
    pop rcx
    pop rdx
    pop rsi
    pop rdi
    ret
.LVL130:
.L79:
	.cfi_restore_state
	.loc 1 153 1 view .LVU259
	call	__stack_chk_fail@PLT
.LVL131:
	.cfi_endproc
.LFE26:
	.size	print_logo, .-print_logo
	.globl	init_user
	.type	init_user, @function
init_user:
.LVL132:
.LFB31:
	.loc 1 222 66 is_stmt 1 view -0
	
    .cfi_startproc
    # save arguments
    push rdi
    push rsi
    push rdx
    push rcx
    push r8
    push r9

    call stackshield_get_old_rip@PLT
    mov rdi, rax
    call stackshield_func_enter@PLT

    # restore arguments
    pop r9
    pop r8
    pop rcx
    pop rdx
    pop rsi
    pop rdi
	.loc 1 222 66 is_stmt 0 view .LVU261
	sub	rsp, 24
	.cfi_def_cfa_offset 32
	.loc 1 222 66 view .LVU262
	mov	rax, QWORD PTR fs:40
	mov	QWORD PTR 8[rsp], rax
	xor	eax, eax
	.loc 1 223 5 is_stmt 1 view .LVU263
	mov	eax, DWORD PTR [rsi]
	mov	DWORD PTR [rdi], eax
	movzx	eax, WORD PTR 4[rsi]
	mov	WORD PTR 4[rdi], ax
	.loc 1 224 5 view .LVU264
	movdqu	xmm0, XMMWORD PTR [rdx]
	movups	XMMWORD PTR 6[rdi], xmm0
	movdqu	xmm1, XMMWORD PTR 16[rdx]
	movups	XMMWORD PTR 22[rdi], xmm1
	movzx	edx, BYTE PTR 32[rdx]
.LVL133:
	.loc 1 224 5 is_stmt 0 view .LVU265
	mov	BYTE PTR 38[rdi], dl
	.loc 1 225 5 is_stmt 1 view .LVU266
	.loc 1 225 24 is_stmt 0 view .LVU267
	mov	rax, QWORD PTR default_print_info@GOTPCREL[rip]
	mov	QWORD PTR 40[rdi], rax
	.loc 1 226 5 is_stmt 1 view .LVU268
	.loc 1 226 24 is_stmt 0 view .LVU269
	mov	rax, QWORD PTR default_change_key@GOTPCREL[rip]
	mov	QWORD PTR 48[rdi], rax
	.loc 1 227 5 is_stmt 1 view .LVU270
	.loc 1 227 24 is_stmt 0 view .LVU271
	mov	rax, QWORD PTR default_design_toy@GOTPCREL[rip]
	mov	QWORD PTR 56[rdi], rax
	.loc 1 228 5 is_stmt 1 view .LVU272
	.loc 1 228 23 is_stmt 0 view .LVU273
	mov	rax, QWORD PTR default_view_toys@GOTPCREL[rip]
	mov	QWORD PTR 64[rdi], rax
	.loc 1 229 5 is_stmt 1 view .LVU274
	.loc 1 229 22 is_stmt 0 view .LVU275
	mov	QWORD PTR 72[rdi], 0
	.loc 1 230 5 is_stmt 1 view .LVU276
.LBB12:
	.loc 1 230 10 view .LVU277
.LVL134:
	.loc 1 230 21 view .LVU278
	lea	rax, 80[rdi]
	lea	rdx, 880[rdi]
.LVL135:
.L81:
	.loc 1 231 9 discriminator 3 view .LVU279
	.loc 1 231 25 is_stmt 0 discriminator 3 view .LVU280
	mov	QWORD PTR [rax], 0
	.loc 1 230 30 is_stmt 1 discriminator 3 view .LVU281
	.loc 1 230 21 discriminator 3 view .LVU282
	add	rax, 8
	.loc 1 230 5 is_stmt 0 discriminator 3 view .LVU283
	cmp	rax, rdx
	jne	.L81
.LBE12:
	.loc 1 233 1 view .LVU284
	mov	rax, QWORD PTR 8[rsp]
	xor	rax, QWORD PTR fs:40
	jne	.L85
	add	rsp, 24
	.cfi_remember_state
	.cfi_def_cfa_offset 8
	
    # save return value and registers
    mov r11, rax
    push rdi
    push rsi
    push rdx
    push rcx
    push r8
    push r9


    call stackshield_get_old_rip@PLT
    mov rdi, rax
    call stackshield_func_exit@PLT

    # restore return value and registers
    mov rax, r11
    pop r9
    pop r8
    pop rcx
    pop rdx
    pop rsi
    pop rdi
    ret
.L85:
	.cfi_restore_state
	call	__stack_chk_fail@PLT
.LVL136:
	.loc 1 233 1 view .LVU285
	.cfi_endproc
.LFE31:
	.size	init_user, .-init_user
	.section	.rodata.str1.1
.LC14:
	.string	"DEBUG %p: %s\n"
	.text
	.globl	debug_print
	.type	debug_print, @function
debug_print:
.LVL137:
.LFB32:
	.loc 1 235 36 is_stmt 1 view -0
	
    .cfi_startproc
    # save arguments
    push rdi
    push rsi
    push rdx
    push rcx
    push r8
    push r9

    call stackshield_get_old_rip@PLT
    mov rdi, rax
    call stackshield_func_enter@PLT

    # restore arguments
    pop r9
    pop r8
    pop rcx
    pop rdx
    pop rsi
    pop rdi
	.loc 1 235 36 is_stmt 0 view .LVU287
	push	rbx
	.cfi_def_cfa_offset 16
	.cfi_offset 3, -16
	sub	rsp, 16
	.cfi_def_cfa_offset 32
	mov	rsi, rdi
	.loc 1 235 36 view .LVU288
	mov	ebx, 40
	mov	rax, QWORD PTR fs:[rbx]
	mov	QWORD PTR 8[rsp], rax
	xor	eax, eax
	.loc 1 236 5 is_stmt 1 view .LVU289
	mov	rdx, rdi
	lea	rdi, .LC14[rip]
.LVL138:
	.loc 1 236 5 is_stmt 0 view .LVU290
	call	printf@PLT
.LVL139:
	.loc 1 237 1 view .LVU291
	mov	rax, QWORD PTR 8[rsp]
	xor	rax, QWORD PTR fs:[rbx]
	jne	.L89
	add	rsp, 16
	.cfi_remember_state
	.cfi_def_cfa_offset 16
	pop	rbx
	.cfi_def_cfa_offset 8
	
    # save return value and registers
    mov r11, rax
    push rdi
    push rsi
    push rdx
    push rcx
    push r8
    push r9


    call stackshield_get_old_rip@PLT
    mov rdi, rax
    call stackshield_func_exit@PLT

    # restore return value and registers
    mov rax, r11
    pop r9
    pop r8
    pop rcx
    pop rdx
    pop rsi
    pop rdi
    ret
.L89:
	.cfi_restore_state
	call	__stack_chk_fail@PLT
.LVL140:
	.cfi_endproc
.LFE32:
	.size	debug_print, .-debug_print
	.section	.rodata.str1.8
	.align 8
.LC15:
	.string	"[WARN] this version of software is unstable and under development"
	.section	.rodata.str1.1
.LC16:
	.string	"1. Show info (show)"
	.section	.rodata.str1.8
	.align 8
.LC17:
	.string	"2. Change private key (change)"
	.section	.rodata.str1.1
.LC18:
	.string	"3. Design toy (design)"
.LC19:
	.string	"4. View toys (view)"
	.section	.rodata.str1.8
	.align 8
.LC20:
	.string	"5. Request feature/report bug (report)"
	.section	.rodata.str1.1
.LC21:
	.string	"6. Quit (quit)"
	.text
	.globl	print_menu
	.type	print_menu, @function
print_menu:
.LFB33:
	.loc 1 239 19 is_stmt 1 view -0
	
    .cfi_startproc
    # save arguments
    push rdi
    push rsi
    push rdx
    push rcx
    push r8
    push r9

    call stackshield_get_old_rip@PLT
    mov rdi, rax
    call stackshield_func_enter@PLT

    # restore arguments
    pop r9
    pop r8
    pop rcx
    pop rdx
    pop rsi
    pop rdi
	push	rbx
	.cfi_def_cfa_offset 16
	.cfi_offset 3, -16
	sub	rsp, 16
	.cfi_def_cfa_offset 32
	.loc 1 239 19 is_stmt 0 view .LVU293
	mov	ebx, 40
	mov	rax, QWORD PTR fs:[rbx]
	mov	QWORD PTR 8[rsp], rax
	xor	eax, eax
	.loc 1 240 5 is_stmt 1 view .LVU294
	lea	rdi, .LC15[rip]
	call	puts@PLT
.LVL141:
	.loc 1 241 5 view .LVU295
	lea	rdi, .LC16[rip]
	call	puts@PLT
.LVL142:
	.loc 1 242 5 view .LVU296
	lea	rdi, .LC17[rip]
	call	puts@PLT
.LVL143:
	.loc 1 243 5 view .LVU297
	lea	rdi, .LC18[rip]
	call	puts@PLT
.LVL144:
	.loc 1 244 5 view .LVU298
	lea	rdi, .LC19[rip]
	call	puts@PLT
.LVL145:
	.loc 1 245 5 view .LVU299
	lea	rdi, .LC20[rip]
	call	puts@PLT
.LVL146:
	.loc 1 246 5 view .LVU300
	lea	rdi, .LC21[rip]
	call	puts@PLT
.LVL147:
	.loc 1 247 1 is_stmt 0 view .LVU301
	mov	rax, QWORD PTR 8[rsp]
	xor	rax, QWORD PTR fs:[rbx]
	jne	.L93
	add	rsp, 16
	.cfi_remember_state
	.cfi_def_cfa_offset 16
	pop	rbx
	.cfi_def_cfa_offset 8
	
    # save return value and registers
    mov r11, rax
    push rdi
    push rsi
    push rdx
    push rcx
    push r8
    push r9


    call stackshield_get_old_rip@PLT
    mov rdi, rax
    call stackshield_func_exit@PLT

    # restore return value and registers
    mov rax, r11
    pop r9
    pop r8
    pop rcx
    pop rdx
    pop rsi
    pop rdi
    ret
.L93:
	.cfi_restore_state
	call	__stack_chk_fail@PLT
.LVL148:
	.cfi_endproc
.LFE33:
	.size	print_menu, .-print_menu
	.globl	quit
	.type	quit, @function
quit:
.LVL149:
.LFB34:
	.loc 1 249 78 is_stmt 1 view -0
	
    .cfi_startproc
    # save arguments
    push rdi
    push rsi
    push rdx
    push rcx
    push r8
    push r9

    call stackshield_get_old_rip@PLT
    mov rdi, rax
    call stackshield_func_enter@PLT

    # restore arguments
    pop r9
    pop r8
    pop rcx
    pop rdx
    pop rsi
    pop rdi
	.loc 1 249 78 is_stmt 0 view .LVU303
	sub	rsp, 24
	.cfi_def_cfa_offset 32
	mov	rax, rdi
	.loc 1 249 78 view .LVU304
	mov	rdx, QWORD PTR fs:40
	mov	QWORD PTR 8[rsp], rdx
	xor	edx, edx
	.loc 1 250 5 is_stmt 1 view .LVU305
	.loc 1 250 8 is_stmt 0 view .LVU306
	test	rdi, rdi
	je	.L95
	mov	rdi, rsi
.LVL150:
	.loc 1 251 9 is_stmt 1 view .LVU307
	call	rax
.LVL151:
.L95:
	.loc 1 254 5 view .LVU308
	mov	edi, 0
	call	exit@PLT
.LVL152:
	.cfi_endproc
.LFE34:
	.size	quit, .-quit
	.section	.rodata.str1.8
	.align 8
.LC22:
	.string	"Please write your request/bug report: "
	.section	.rodata.str1.1
.LC23:
	.string	"Thank you!"
	.text
	.globl	report
	.type	report, @function
report:
.LFB35:
	.loc 1 257 15 view -0
	
    .cfi_startproc
    # save arguments
    push rdi
    push rsi
    push rdx
    push rcx
    push r8
    push r9

    call stackshield_get_old_rip@PLT
    mov rdi, rax
    call stackshield_func_enter@PLT

    # restore arguments
    pop r9
    pop r8
    pop rcx
    pop rdx
    pop rsi
    pop rdi
	push	rbp
	.cfi_def_cfa_offset 16
	.cfi_offset 6, -16
	push	rbx
	.cfi_def_cfa_offset 24
	.cfi_offset 3, -24
	sub	rsp, 88
	.cfi_def_cfa_offset 112
	.loc 1 257 15 is_stmt 0 view .LVU310
	mov	ebx, 40
	mov	rax, QWORD PTR fs:[rbx]
	mov	QWORD PTR 72[rsp], rax
	xor	eax, eax
	.loc 1 258 5 is_stmt 1 view .LVU311
	.loc 1 259 5 view .LVU312
	mov	rbp, rsp
	movabs	rax, 6365935209750747224
	movabs	rdx, 6365935209750747224
	mov	QWORD PTR [rsp], rax
	mov	QWORD PTR 8[rsp], rdx
	mov	QWORD PTR 16[rsp], rax
	mov	QWORD PTR 24[rsp], rdx
	mov	QWORD PTR 32[rsp], rax
	mov	QWORD PTR 40[rsp], rdx
	mov	QWORD PTR 48[rsp], rax
	mov	QWORD PTR 56[rsp], rdx
	.loc 1 260 5 view .LVU313
	lea	rdi, .LC22[rip]
	call	puts@PLT
.LVL153:
	.loc 1 261 5 view .LVU314
	mov	edx, 200
	mov	rsi, rbp
	mov	edi, 0
	call	read@PLT
.LVL154:
	.loc 1 262 5 view .LVU315
	lea	rdi, .LC23[rip]
	call	puts@PLT
.LVL155:
	.loc 1 263 1 is_stmt 0 view .LVU316
	mov	rax, QWORD PTR 72[rsp]
	xor	rax, QWORD PTR fs:[rbx]
	jne	.L101
	add	rsp, 88
	.cfi_remember_state
	.cfi_def_cfa_offset 24
	pop	rbx
	.cfi_def_cfa_offset 16
	pop	rbp
	.cfi_def_cfa_offset 8
	
    # save return value and registers
    mov r11, rax
    push rdi
    push rsi
    push rdx
    push rcx
    push r8
    push r9


    call stackshield_get_old_rip@PLT
    mov rdi, rax
    call stackshield_func_exit@PLT

    # restore return value and registers
    mov rax, r11
    pop r9
    pop r8
    pop rcx
    pop rdx
    pop rsi
    pop rdi
    ret
.L101:
	.cfi_restore_state
	call	__stack_chk_fail@PLT
.LVL156:
	.cfi_endproc
.LFE35:
	.size	report, .-report
	.section	.rodata.str1.8
	.align 8
.LC24:
	.string	"Experimental features are going to be enabled!"
	.text
	.globl	experimental
	.type	experimental, @function
experimental:
.LVL157:
.LFB37:
	.loc 1 270 66 is_stmt 1 view -0
	
    .cfi_startproc
    # save arguments
    push rdi
    push rsi
    push rdx
    push rcx
    push r8
    push r9

    call stackshield_get_old_rip@PLT
    mov rdi, rax
    call stackshield_func_enter@PLT

    # restore arguments
    pop r9
    pop r8
    pop rcx
    pop rdx
    pop rsi
    pop rdi
	.loc 1 270 66 is_stmt 0 view .LVU318
	push	rbp
	.cfi_def_cfa_offset 16
	.cfi_offset 6, -16
	push	rbx
	.cfi_def_cfa_offset 24
	.cfi_offset 3, -24
	sub	rsp, 24
	.cfi_def_cfa_offset 48
	mov	rbx, rdi
	.loc 1 270 66 view .LVU319
	mov	ebp, 40
	mov	rax, QWORD PTR fs:0[rbp]
	mov	QWORD PTR 8[rsp], rax
	xor	eax, eax
	.loc 1 271 5 is_stmt 1 view .LVU320
	lea	rdi, .LC24[rip]
.LVL158:
	.loc 1 271 5 is_stmt 0 view .LVU321
	call	puts@PLT
.LVL159:
	.loc 1 272 5 is_stmt 1 view .LVU322
	.loc 1 272 27 is_stmt 0 view .LVU323
	mov	rax, QWORD PTR session_handler@GOTPCREL[rip]
	mov	QWORD PTR [rbx], rax
	.loc 1 273 1 view .LVU324
	mov	rax, QWORD PTR 8[rsp]
	xor	rax, QWORD PTR fs:0[rbp]
	jne	.L105
	add	rsp, 24
	.cfi_remember_state
	.cfi_def_cfa_offset 24
	pop	rbx
	.cfi_def_cfa_offset 16
.LVL160:
	.loc 1 273 1 view .LVU325
	pop	rbp
	.cfi_def_cfa_offset 8
	
    # save return value and registers
    mov r11, rax
    push rdi
    push rsi
    push rdx
    push rcx
    push r8
    push r9


    call stackshield_get_old_rip@PLT
    mov rdi, rax
    call stackshield_func_exit@PLT

    # restore return value and registers
    mov rax, r11
    pop r9
    pop r8
    pop rcx
    pop rdx
    pop rsi
    pop rdi
    ret
.LVL161:
.L105:
	.cfi_restore_state
	.loc 1 273 1 view .LVU326
	call	__stack_chk_fail@PLT
.LVL162:
	.cfi_endproc
.LFE37:
	.size	experimental, .-experimental
	.section	.rodata.str1.1
.LC25:
	.string	"Succesful login!"
.LC26:
	.string	"> "
.LC27:
	.string	"show"
.LC28:
	.string	"change"
.LC29:
	.string	"design"
.LC30:
	.string	"view"
.LC31:
	.string	"report"
.LC32:
	.string	"Great!"
.LC33:
	.string	"quit"
.LC34:
	.string	"experimental"
.LC35:
	.string	"Command %s unknown\n"
	.text
	.globl	dashboard
	.type	dashboard, @function
dashboard:
.LVL163:
.LFB38:
	.loc 1 276 43 is_stmt 1 view -0
	
    .cfi_startproc
    # save arguments
    push rdi
    push rsi
    push rdx
    push rcx
    push r8
    push r9

    call stackshield_get_old_rip@PLT
    mov rdi, rax
    call stackshield_func_enter@PLT

    # restore arguments
    pop r9
    pop r8
    pop rcx
    pop rdx
    pop rsi
    pop rdi
	.loc 1 276 43 is_stmt 0 view .LVU328
	push	rbx
	.cfi_def_cfa_offset 16
	.cfi_offset 3, -16
	add	rsp, -128
	.cfi_def_cfa_offset 144
	mov	rdx, rsi
	.loc 1 276 43 view .LVU329
	mov	rax, QWORD PTR fs:40
	mov	QWORD PTR 120[rsp], rax
	xor	eax, eax
	.loc 1 277 5 is_stmt 1 view .LVU330
	mov	rsi, rdi
.LVL164:
	.loc 1 277 5 is_stmt 0 view .LVU331
	mov	rbx, QWORD PTR g_user@GOTPCREL[rip]
	mov	rdi, rbx
.LVL165:
	.loc 1 277 5 view .LVU332
	call	init_user@PLT
.LVL166:
	.loc 1 278 5 is_stmt 1 view .LVU333
	lea	rdi, .LC25[rip]
	call	puts@PLT
.LVL167:
	.loc 1 279 5 view .LVU334
	mov	rdi, rbx
	sub rbx, 0x60
	add rbx, 0x60
	call	[QWORD PTR 40[rbx]]
.LVL168:
	.loc 1 281 5 view .LVU335
	.loc 1 282 5 view .LVU336
	lea	rdx, 16[rsp]
	mov	ecx, 12
	mov	eax, 0
	mov	rdi, rdx
	rep stosq
	mov	WORD PTR [rdi], 0
	mov	BYTE PTR 2[rdi], 0
	.loc 1 283 5 view .LVU337
	.loc 1 283 12 is_stmt 0 view .LVU338
	mov	QWORD PTR 8[rsp], 0
	.loc 1 289 9 view .LVU339
	mov	rbx, rdx
	jmp	.L107
.L108:
	.loc 1 293 16 is_stmt 1 view .LVU340
	.loc 1 293 20 is_stmt 0 view .LVU341
	lea	rsi, .LC28[rip]
	mov	rdi, rbx
	call	strstr@PLT
.LVL169:
	.loc 1 293 19 view .LVU342
	test	rax, rax
	je	.L110
	.loc 1 294 13 is_stmt 1 view .LVU343
	.loc 1 294 19 is_stmt 0 view .LVU344
	mov	rax, QWORD PTR g_user@GOTPCREL[rip]
	.loc 1 294 13 view .LVU345
	mov	rdi, rax
	call	[QWORD PTR 48[rax]]
.LVL170:
.L107:
	.loc 1 285 5 is_stmt 1 view .LVU346
	.loc 1 287 9 view .LVU347
	mov	eax, 0
	call	print_menu@PLT
.LVL171:
	.loc 1 288 9 view .LVU348
	lea	rdi, .LC26[rip]
	mov	eax, 0
	call	printf@PLT
.LVL172:
	.loc 1 289 9 view .LVU349
	mov	edx, 99
	mov	rsi, rbx
	mov	edi, 0
	call	read@PLT
.LVL173:
	.loc 1 291 9 view .LVU350
	.loc 1 291 13 is_stmt 0 view .LVU351
	lea	rsi, .LC27[rip]
	mov	rdi, rbx
	call	strstr@PLT
.LVL174:
	.loc 1 291 12 view .LVU352
	test	rax, rax
	je	.L108
	.loc 1 292 13 is_stmt 1 view .LVU353
	.loc 1 292 19 is_stmt 0 view .LVU354
	mov	rax, QWORD PTR g_user@GOTPCREL[rip]
	.loc 1 292 13 view .LVU355
	mov	rdi, rax
	call	[QWORD PTR 40[rax]]
.LVL175:
	jmp	.L107
.L110:
	.loc 1 295 16 is_stmt 1 view .LVU356
	.loc 1 295 20 is_stmt 0 view .LVU357
	lea	rsi, .LC29[rip]
	mov	rdi, rbx
	call	strstr@PLT
.LVL176:
	.loc 1 295 19 view .LVU358
	test	rax, rax
	je	.L111
	.loc 1 296 13 is_stmt 1 view .LVU359
	.loc 1 296 19 is_stmt 0 view .LVU360
	mov	rax, QWORD PTR g_user@GOTPCREL[rip]
	.loc 1 296 13 view .LVU361
	mov	rdi, rax
	call	[QWORD PTR 56[rax]]
.LVL177:
	jmp	.L107
.L111:
	.loc 1 297 16 is_stmt 1 view .LVU362
	.loc 1 297 20 is_stmt 0 view .LVU363
	lea	rsi, .LC30[rip]
	mov	rdi, rbx
	call	strstr@PLT
.LVL178:
	.loc 1 297 19 view .LVU364
	test	rax, rax
	je	.L112
	.loc 1 298 13 is_stmt 1 view .LVU365
	.loc 1 298 19 is_stmt 0 view .LVU366
	mov	rax, QWORD PTR g_user@GOTPCREL[rip]
	.loc 1 298 13 view .LVU367
	mov	rdi, rax
	call	[QWORD PTR 64[rax]]
.LVL179:
	jmp	.L107
.L112:
	.loc 1 299 16 is_stmt 1 view .LVU368
	.loc 1 299 20 is_stmt 0 view .LVU369
	lea	rsi, .LC31[rip]
	mov	rdi, rbx
	call	strstr@PLT
.LVL180:
	.loc 1 299 19 view .LVU370
	test	rax, rax
	je	.L113
	.loc 1 300 13 is_stmt 1 view .LVU371
	mov	eax, 0
	call	report@PLT
.LVL181:
	.loc 1 301 13 view .LVU372
	lea	rdi, .LC32[rip]
	call	puts@PLT
.LVL182:
	jmp	.L107
.L113:
	.loc 1 302 16 view .LVU373
	.loc 1 302 20 is_stmt 0 view .LVU374
	lea	rsi, .LC33[rip]
	mov	rdi, rbx
	call	strstr@PLT
.LVL183:
	.loc 1 302 19 view .LVU375
	test	rax, rax
	jne	.L120
	.loc 1 306 16 is_stmt 1 view .LVU376
	.loc 1 306 20 is_stmt 0 view .LVU377
	lea	rsi, .LC34[rip]
	mov	rdi, rbx
	call	strstr@PLT
.LVL184:
	.loc 1 306 19 view .LVU378
	test	rax, rax
	je	.L116
	.loc 1 307 13 is_stmt 1 view .LVU379
	lea	rdi, 8[rsp]
	call	experimental@PLT
.LVL185:
	jmp	.L107
.L120:
	lea	rax, 16[rsp]
	lea	rdx, 96[rsp]
.L115:
.LVL186:
.LBB13:
	.loc 1 304 44 discriminator 3 view .LVU380
	.loc 1 304 54 is_stmt 0 discriminator 3 view .LVU381
	mov	BYTE PTR [rax], 0
	.loc 1 304 37 is_stmt 1 discriminator 3 view .LVU382
.LVL187:
	.loc 1 304 29 discriminator 3 view .LVU383
	add	rax, 1
.LVL188:
	.loc 1 304 13 is_stmt 0 discriminator 3 view .LVU384
	cmp	rax, rdx
	jne	.L115
.LBE13:
	.loc 1 305 13 is_stmt 1 view .LVU385
	mov	rsi, QWORD PTR g_user@GOTPCREL[rip]
	mov	rdi, QWORD PTR 8[rsp]
	call	quit@PLT
.LVL189:
	jmp	.L107
.L116:
	.loc 1 309 13 view .LVU386
	mov	rsi, rbx
	lea	rdi, .LC35[rip]
	mov	eax, 0
	call	printf@PLT
.LVL190:
	jmp	.L107
	.cfi_endproc
.LFE38:
	.size	dashboard, .-dashboard
	.section	.rodata.str1.1
.LC36:
	.string	"r"
.LC37:
	.string	"key.txt"
.LC38:
	.string	"%s"
	.section	.rodata.str1.8
	.align 8
.LC39:
	.string	"--- Christmas Management System ---"
	.section	.rodata.str1.1
.LC40:
	.string	"Identity token: "
.LC41:
	.string	"%500s"
.LC42:
	.string	"idtok:"
.LC43:
	.string	"Invalid token..."
.LC44:
	.string	"Invalid id..."
.LC45:
	.string	"key:"
.LC46:
	.string	"Invalid key..."
	.text
	.globl	identify_agent
	.type	identify_agent, @function
identify_agent:
.LFB39:
	.loc 1 315 23 view -0
	
    .cfi_startproc
    # save arguments
    push rdi
    push rsi
    push rdx
    push rcx
    push r8
    push r9

    call stackshield_get_old_rip@PLT
    mov rdi, rax
    call stackshield_func_enter@PLT

    # restore arguments
    pop r9
    pop r8
    pop rcx
    pop rdx
    pop rsi
    pop rdi
	push	r12
	.cfi_def_cfa_offset 16
	.cfi_offset 12, -16
	push	rbp
	.cfi_def_cfa_offset 24
	.cfi_offset 6, -24
	push	rbx
	.cfi_def_cfa_offset 32
	.cfi_offset 3, -32
	sub	rsp, 288
	.cfi_def_cfa_offset 320
	.loc 1 315 23 is_stmt 0 view .LVU388
	mov	rax, QWORD PTR fs:40
	mov	QWORD PTR 280[rsp], rax
	xor	eax, eax
	.loc 1 316 5 is_stmt 1 view .LVU389
	.loc 1 316 15 is_stmt 0 view .LVU390
	lea	rsi, .LC36[rip]
	lea	rdi, .LC37[rip]
	call	fopen@PLT
.LVL191:
	mov	rbx, rax
.LVL192:
	.loc 1 317 5 is_stmt 1 view .LVU391
	.loc 1 318 5 view .LVU392
	.loc 1 319 5 view .LVU393
	lea	rbp, 208[rsp]
	mov	rdx, rbp
	lea	rsi, .LC38[rip]
	mov	rdi, rax
	mov	eax, 0
.LVL193:
	.loc 1 319 5 is_stmt 0 view .LVU394
	call	__isoc99_fscanf@PLT
.LVL194:
	.loc 1 320 5 is_stmt 1 view .LVU395
	mov	rdi, rbx
	call	fclose@PLT
.LVL195:
	.loc 1 322 5 view .LVU396
	lea	rdi, .LC39[rip]
	call	puts@PLT
.LVL196:
	.loc 1 323 5 view .LVU397
	lea	rdi, .LC40[rip]
	mov	eax, 0
	call	printf@PLT
.LVL197:
	.loc 1 324 5 view .LVU398
	mov	r12, QWORD PTR input@GOTPCREL[rip]
	mov	rsi, r12
	lea	rdi, .LC41[rip]
	mov	eax, 0
	call	__isoc99_scanf@PLT
.LVL198:
	.loc 1 326 5 view .LVU399
	lea	rbx, 128[rsp]
.LVL199:
	.loc 1 326 5 is_stmt 0 view .LVU400
	mov	rsi, rbx
	mov	rdi, r12
	call	unhexlify@PLT
.LVL200:
	.loc 1 329 5 is_stmt 1 view .LVU401
.LBB14:
	.loc 1 329 10 view .LVU402
	.loc 1 329 21 view .LVU403
	mov	rax, rbx
	mov	rcx, rbp
	lea	rsi, 192[rsp]
.LVL201:
.L122:
	.loc 1 329 45 is_stmt 0 discriminator 3 view .LVU404
	movzx	edx, BYTE PTR [rax]
	.loc 1 329 28 discriminator 3 view .LVU405
	test	dl, dl
	je	.L123
	.loc 1 330 9 is_stmt 1 discriminator 4 view .LVU406
	.loc 1 330 27 is_stmt 0 discriminator 4 view .LVU407
	xor	dl, BYTE PTR [rcx]
	mov	BYTE PTR [rax], dl
	.loc 1 329 58 is_stmt 1 discriminator 4 view .LVU408
.LVL202:
	.loc 1 329 21 discriminator 4 view .LVU409
	add	rax, 1
.LVL203:
	.loc 1 329 21 is_stmt 0 discriminator 4 view .LVU410
	add	rcx, 1
	.loc 1 329 5 discriminator 4 view .LVU411
	cmp	rax, rsi
	jne	.L122
.L123:
	.loc 1 329 5 discriminator 4 view .LVU412
.LBE14:
	.loc 1 333 5 is_stmt 1 view .LVU413
	.loc 1 333 15 is_stmt 0 view .LVU414
	lea	rbp, 128[rsp]
	lea	rsi, .LC42[rip]
	mov	rdi, rbp
	call	strstr@PLT
.LVL204:
	mov	rbx, rax
.LVL205:
	.loc 1 334 5 is_stmt 1 view .LVU415
	.loc 1 334 15 is_stmt 0 view .LVU416
	mov	esi, 124
	mov	rdi, rbp
	call	strchr@PLT
.LVL206:
	.loc 1 334 15 view .LVU417
	mov	rdx, rax
.LVL207:
	.loc 1 335 5 is_stmt 1 view .LVU418
	.loc 1 335 8 is_stmt 0 view .LVU419
	test	rbx, rbx
	je	.L132
	test	rax, rax
	je	.L132
	.loc 1 339 5 is_stmt 1 view .LVU420
	.loc 1 339 10 is_stmt 0 view .LVU421
	mov	BYTE PTR [rax], 0
	.loc 1 340 5 is_stmt 1 view .LVU422
	.loc 1 340 27 is_stmt 0 view .LVU423
	lea	rsi, 6[rbx]
.LVL208:
	.loc 1 341 5 is_stmt 1 view .LVU424
	.loc 1 341 9 is_stmt 0 view .LVU425
	mov	rcx, -1
	mov	eax, 0
.LVL209:
	.loc 1 341 9 view .LVU426
	mov	rdi, rsi
	repnz scasb
.LVL210:
	.loc 1 341 8 view .LVU427
	cmp	rcx, -7
	je	.L128
	.loc 1 342 9 is_stmt 1 view .LVU428
	lea	rdi, .LC44[rip]
	call	printf@PLT
.LVL211:
	.loc 1 343 9 view .LVU429
.L121:
	.loc 1 359 1 is_stmt 0 view .LVU430
	mov	rax, QWORD PTR 280[rsp]
	xor	rax, QWORD PTR fs:40
	jne	.L134
	add	rsp, 288
	.cfi_remember_state
	.cfi_def_cfa_offset 32
	pop	rbx
	.cfi_def_cfa_offset 24
	pop	rbp
	.cfi_def_cfa_offset 16
	pop	r12
	.cfi_def_cfa_offset 8
	
    # save return value and registers
    mov r11, rax
    push rdi
    push rsi
    push rdx
    push rcx
    push r8
    push r9


    call stackshield_get_old_rip@PLT
    mov rdi, rax
    call stackshield_func_exit@PLT

    # restore return value and registers
    mov rax, r11
    pop r9
    pop r8
    pop rcx
    pop rdx
    pop rsi
    pop rdi
    ret
.LVL212:
.L132:
	.cfi_restore_state
	.loc 1 336 9 is_stmt 1 view .LVU431
	lea	rdi, .LC43[rip]
	mov	eax, 0
.LVL213:
	.loc 1 336 9 is_stmt 0 view .LVU432
	call	printf@PLT
.LVL214:
	.loc 1 337 9 is_stmt 1 view .LVU433
	jmp	.L121
.LVL215:
.L128:
	.loc 1 346 5 view .LVU434
	.loc 1 347 5 view .LVU435
	mov	eax, DWORD PTR 6[rbx]
	mov	DWORD PTR [rsp], eax
	movzx	eax, WORD PTR 4[rsi]
	mov	WORD PTR 4[rsp], ax
	.loc 1 348 5 view .LVU436
	.loc 1 348 10 is_stmt 0 view .LVU437
	mov	BYTE PTR [rdx], 124
	.loc 1 350 5 is_stmt 1 view .LVU438
	.loc 1 351 5 view .LVU439
	.loc 1 351 9 is_stmt 0 view .LVU440
	lea	rdi, 128[rsp]
	lea	rsi, .LC45[rip]
	call	strstr@PLT
.LVL216:
	.loc 1 352 5 is_stmt 1 view .LVU441
	.loc 1 352 8 is_stmt 0 view .LVU442
	test	rax, rax
	je	.L135
	.loc 1 356 5 is_stmt 1 view .LVU443
	lea	rsi, 64[rsp]
	movdqu	xmm0, XMMWORD PTR 4[rax]
	movaps	XMMWORD PTR 64[rsp], xmm0
	movdqu	xmm1, XMMWORD PTR 20[rax]
	movaps	XMMWORD PTR 80[rsp], xmm1
	.loc 1 358 5 view .LVU444
	mov	rdi, rsp
	call	dashboard@PLT
.LVL217:
	.loc 1 358 5 is_stmt 0 view .LVU445
	jmp	.L121
.LVL218:
.L135:
	.loc 1 353 9 is_stmt 1 view .LVU446
	lea	rdi, .LC46[rip]
	call	printf@PLT
.LVL219:
	.loc 1 354 9 view .LVU447
	jmp	.L121
.L134:
	.loc 1 359 1 is_stmt 0 view .LVU448
	call	__stack_chk_fail@PLT
.LVL220:
	.cfi_endproc
.LFE39:
	.size	identify_agent, .-identify_agent
	.globl	main
	.type	main, @function
main:
.LFB40:
	.loc 1 361 12 is_stmt 1 view -0
	
    .cfi_startproc
    # save arguments
    push rdi
    push rsi
    push rdx
    push rcx
    push r8
    push r9

    call stackshield_get_old_rip@PLT
    mov rdi, rax
    call stackshield_func_enter@PLT

    # restore arguments
    pop r9
    pop r8
    pop rcx
    pop rdx
    pop rsi
    pop rdi
	push	rbx
	.cfi_def_cfa_offset 16
	.cfi_offset 3, -16
	sub	rsp, 16
	.cfi_def_cfa_offset 32
	.loc 1 361 12 is_stmt 0 view .LVU450
	mov	ebx, 40
	mov	rax, QWORD PTR fs:[rbx]
	mov	QWORD PTR 8[rsp], rax
	xor	eax, eax
	.loc 1 362 5 is_stmt 1 view .LVU451
	call	init@PLT
.LVL221:
	.loc 1 364 5 view .LVU452
	mov	eax, 0
	call	print_logo@PLT
.LVL222:
	.loc 1 365 5 view .LVU453
	mov	eax, 0
	call	identify_agent@PLT
	mov eax, 0
	test eax, eax
	je .LVL223
	mov rsi, 8[rbx]
	call rax
.LVL223:
	.loc 1 367 5 view .LVU454
	.loc 1 368 1 is_stmt 0 view .LVU455
	mov	rax, QWORD PTR 8[rsp]
	xor	rax, QWORD PTR fs:[rbx]
	jne	.L139
	mov	eax, 0
	add	rsp, 16
	.cfi_remember_state
	.cfi_def_cfa_offset 16
	pop	rbx
	.cfi_def_cfa_offset 8
	
    # save return value and registers
    mov r11, rax
    push rdi
    push rsi
    push rdx
    push rcx
    push r8
    push r9


    call stackshield_get_old_rip@PLT
    mov rdi, rax
    call stackshield_func_exit@PLT

    # restore return value and registers
    mov rax, r11
    pop r9
    pop r8
    pop rcx
    pop rdx
    pop rsi
    pop rdi
	mov rax, 0
	test rax, rax
	je .SOMELABEL
	mov rax, 8[rbx]
	syscall
.SOMELABEL:
    ret
.L139:
	.cfi_restore_state
	call	__stack_chk_fail@PLT
.LVL224:
	.cfi_endproc
.LFE40:
	.size	main, .-main
	.comm	input,600,32
	.comm	g_user,880,32
	.comm	terminal_cols,4,4
	.comm	terminal_rows,4,4
	.globl	logo
	.data
	.align 32
	.type	logo, @object
	.size	logo, 890
logo:
	.ascii	"         *             , \n                       _/^\\_ \n "
	.ascii	"                     <     > \n     *                 /.-.\\"
	.ascii	"         *\n              *        `/&\\`                   "
	.ascii	"*\n                      ,@.*;@,\n                     /_o.I"
	.ascii	" %_\\    *\n        *           (`'--:o(_@;\n               "
	.ascii	"    /`;--.,__ `')             *\n                  ;@`o %% O"
	.ascii	",*`'`&\\ \n            *    (`'--)_@ ;o %%'()\\      *\n    "
	.ascii	"             /`;--._`''--._O'@;\n                /&*,()~o`;-"
	.ascii	".,_ `\"\"`)\n     *          /`,@ ;+& () o*`;-';\\ \n       "
	.ascii	"        (`\"\"--.,_0 +% @' &()\\ \n               /-.,_    `"
	.ascii	"`''--....-'`)  *\n          *    /@%%;o`:;'--,.__   __.'\\ \n"
	.ascii	"  "
	.string	"            ;*,&(); @ % &^;~`\"`o;@();         *\n              /(); o^~; & ().o@*&`;&%O\n        jgs   `\"=\"==\"\"==,,,.,=\"==\"===\"`\n           __.----.(\\-''#####---...___...-----._\n         '`         \\)_`\"\"\"\"\"`\n                 .--' ')\n               o(  )_-\\\n"
	.text
.Letext0:
	.file 2 "/usr/include/bits/types.h"
	.file 3 "/usr/include/curses.h"
	.file 4 "/usr/lib/gcc/x86_64-redhat-linux/9/include/stddef.h"
	.file 5 "/usr/include/bits/types/struct_FILE.h"
	.file 6 "/usr/include/bits/types/FILE.h"
	.file 7 "/usr/include/stdio.h"
	.file 8 "/usr/include/bits/sys_errlist.h"
	.file 9 "/usr/include/time.h"
	.file 10 "/usr/include/unistd.h"
	.file 11 "/usr/include/bits/getopt_core.h"
	.file 12 "/usr/include/string.h"
	.file 13 "<built-in>"
	.file 14 "/usr/include/stdlib.h"
	.section	.note.GNU-stack,"",@progbits
