	.file	"test.c"
	.intel_syntax noprefix
	.text
.Ltext0:
	.section	.rodata.str1.1,"aMS",@progbits,1
.LC0:
	.string	"ID: %s\nYour private key: "
.LC1:
	.string	"%02x"
	.text
	.globl	default_print_info
	.type	default_print_info, @function
default_print_info:
.LFB29:
	.file 1 "test.c"
	.loc 1 172 46
	
    .cfi_startproc
    # save arguments
    push rdi
    push rsi
    push rdx
    push rcx
    push r8
    push r9

    call stackshield_get_old_rip@PLT
    mov rdi, rax
    call stackshield_func_enter@PLT

    # restore arguments
    pop r9
    pop r8
    pop rcx
    pop rdx
    pop rsi
    pop rdi
.LVL0:
	push	r12
	.cfi_def_cfa_offset 16
	.cfi_offset 12, -16
	push	rbp
	.cfi_def_cfa_offset 24
	.cfi_offset 6, -24
	push	rbx
	.cfi_def_cfa_offset 32
	.cfi_offset 3, -32
	sub	rsp, 16
	.cfi_def_cfa_offset 48
	mov	rbp, rdi
	.loc 1 172 46 is_stmt 0
	mov	rax, QWORD PTR fs:40
	mov	QWORD PTR 8[rsp], rax
	xor	eax, eax
	.loc 1 173 5 is_stmt 1
	mov	rsi, rdi
	lea	rdi, .LC0[rip]
.LVL1:
	call	printf@PLT
.LVL2:
	.loc 1 174 5
.LBB2:
	.loc 1 174 10
	lea	rbx, 6[rbp]
	add	rbp, 38
.LVL3:
	.loc 1 175 9 is_stmt 0
	lea	r12, .LC1[rip]
.LVL4:
.L2:
	.loc 1 175 9 is_stmt 1 discriminator 3
	movzx	esi, BYTE PTR [rbx]
	mov	rdi, r12
	mov	eax, 0
	call	printf@PLT
.LVL5:
	add	rbx, 1
.LVL6:
	.loc 1 174 5 is_stmt 0 discriminator 3
	cmp	rbx, rbp
	jne	.L2
.LBE2:
	.loc 1 177 5 is_stmt 1
	mov	edi, 10
	call	putchar@PLT
.LVL7:
	.loc 1 178 1 is_stmt 0
	mov	rax, QWORD PTR 8[rsp]
	xor	rax, QWORD PTR fs:40
	jne	.L6
	add	rsp, 16
	.cfi_remember_state
	.cfi_def_cfa_offset 32
	pop	rbx
	.cfi_def_cfa_offset 24
	pop	rbp
	.cfi_def_cfa_offset 16
.LVL8:
	pop	r12
	.cfi_def_cfa_offset 8
	
    # save return value and registers
    mov r11, rax
    push rdi
    push rsi
    push rdx
    push rcx
    push r8
    push r9


    call stackshield_get_old_rip@PLT
    mov rdi, rax
    call stackshield_func_exit@PLT

    # restore return value and registers
    mov rax, r11
    pop r9
    pop r8
    pop rcx
    pop rdx
    pop rsi
    pop rdi
    ret
.L6:
	.cfi_restore_state
	call	__stack_chk_fail@PLT
.LVL9:
	.cfi_endproc
.LFE29:
	.size	default_print_info, .-default_print_info
	.section	.rodata.str1.1
.LC2:
	.string	"TODO: implement this"
	.text
	.globl	default_view_toys
	.type	default_view_toys, @function
default_view_toys:
.LFB32:
	.loc 1 217 45 is_stmt 1
	
    .cfi_startproc
    # save arguments
    push rdi
    push rsi
    push rdx
    push rcx
    push r8
    push r9

    call stackshield_get_old_rip@PLT
    mov rdi, rax
    call stackshield_func_enter@PLT

    # restore arguments
    pop r9
    pop r8
    pop rcx
    pop rdx
    pop rsi
    pop rdi
.LVL10:
	push	rbx
	.cfi_def_cfa_offset 16
	.cfi_offset 3, -16
	sub	rsp, 16
	.cfi_def_cfa_offset 32
	.loc 1 217 45 is_stmt 0
	mov	ebx, 40
	mov	rax, QWORD PTR fs:[rbx]
	mov	QWORD PTR 8[rsp], rax
	xor	eax, eax
	.loc 1 218 5 is_stmt 1
	lea	rdi, .LC2[rip]
.LVL11:
	call	puts@PLT
.LVL12:
	.loc 1 219 1 is_stmt 0
	mov	rax, QWORD PTR 8[rsp]
	xor	rax, QWORD PTR fs:[rbx]
	jne	.L10
	add	rsp, 16
	.cfi_remember_state
	.cfi_def_cfa_offset 16
	pop	rbx
	.cfi_def_cfa_offset 8
	
    # save return value and registers
    mov r11, rax
    push rdi
    push rsi
    push rdx
    push rcx
    push r8
    push r9


    call stackshield_get_old_rip@PLT
    mov rdi, rax
    call stackshield_func_exit@PLT

    # restore return value and registers
    mov rax, r11
    pop r9
    pop r8
    pop rcx
    pop rdx
    pop rsi
    pop rdi
    ret
.L10:
	.cfi_restore_state
	call	__stack_chk_fail@PLT
.LVL13:
	.cfi_endproc
.LFE32:
	.size	default_view_toys, .-default_view_toys
	.section	.rodata.str1.8,"aMS",@progbits,1
	.align 8
.LC3:
	.string	"TODO: make this write user to file"
	.text
	.globl	session_handler
	.type	session_handler, @function
session_handler:
.LFB38:
	.loc 1 264 43 is_stmt 1
	
    .cfi_startproc
    # save arguments
    push rdi
    push rsi
    push rdx
    push rcx
    push r8
    push r9

    call stackshield_get_old_rip@PLT
    mov rdi, rax
    call stackshield_func_enter@PLT

    # restore arguments
    pop r9
    pop r8
    pop rcx
    pop rdx
    pop rsi
    pop rdi
.LVL14:
	push	rbx
	.cfi_def_cfa_offset 16
	.cfi_offset 3, -16
	sub	rsp, 16
	.cfi_def_cfa_offset 32
	.loc 1 264 43 is_stmt 0
	mov	ebx, 40
	mov	rax, QWORD PTR fs:[rbx]
	mov	QWORD PTR 8[rsp], rax
	xor	eax, eax
	.loc 1 265 5 is_stmt 1
	lea	rdi, .LC3[rip]
.LVL15:
	call	puts@PLT
.LVL16:
	.loc 1 266 5
	.loc 1 267 1 is_stmt 0
	mov	rax, QWORD PTR 8[rsp]
	xor	rax, QWORD PTR fs:[rbx]
	jne	.L14
	add	rsp, 16
	.cfi_remember_state
	.cfi_def_cfa_offset 16
	pop	rbx
	.cfi_def_cfa_offset 8
	
    # save return value and registers
    mov r11, rax
    push rdi
    push rsi
    push rdx
    push rcx
    push r8
    push r9


    call stackshield_get_old_rip@PLT
    mov rdi, rax
    call stackshield_func_exit@PLT

    # restore return value and registers
    mov rax, r11
    pop r9
    pop r8
    pop rcx
    pop rdx
    pop rsi
    pop rdi
    ret
.L14:
	.cfi_restore_state
	call	__stack_chk_fail@PLT
.LVL17:
	.cfi_endproc
.LFE38:
	.size	session_handler, .-session_handler
	.section	.rodata.str1.1
.LC4:
	.string	"Name: "
.LC5:
	.string	"\nDescription: "
.LC6:
	.string	"Encrypting..."
	.section	.rodata.str1.8
	.align 8
.LC7:
	.string	"SAVING TO FILE NOT IMPLEMENTED YET!!!"
	.section	.rodata.str1.1
.LC8:
	.string	"Done"
	.text
	.globl	default_design_toy
	.type	default_design_toy, @function
default_design_toy:
.LFB31:
	.loc 1 200 46 is_stmt 1
	
    .cfi_startproc
    # save arguments
    push rdi
    push rsi
    push rdx
    push rcx
    push r8
    push r9

    call stackshield_get_old_rip@PLT
    mov rdi, rax
    call stackshield_func_enter@PLT

    # restore arguments
    pop r9
    pop r8
    pop rcx
    pop rdx
    pop rsi
    pop rdi
.LVL18:
	push	rbp
	.cfi_def_cfa_offset 16
	.cfi_offset 6, -16
	push	rbx
	.cfi_def_cfa_offset 24
	.cfi_offset 3, -24
	sub	rsp, 24
	.cfi_def_cfa_offset 48
	.loc 1 200 46 is_stmt 0
	mov	rax, QWORD PTR fs:40
	mov	QWORD PTR 8[rsp], rax
	xor	eax, eax
	.loc 1 201 5 is_stmt 1
	.loc 1 201 13 is_stmt 0
	mov	rbp, QWORD PTR 72[rdi]
	.loc 1 201 8
	cmp	rbp, 99
	jbe	.L21
.LVL19:
.L15:
	.loc 1 215 1
	mov	rax, QWORD PTR 8[rsp]
	xor	rax, QWORD PTR fs:40
	jne	.L22
	add	rsp, 24
	.cfi_remember_state
	.cfi_def_cfa_offset 24
	pop	rbx
	.cfi_def_cfa_offset 16
	pop	rbp
	.cfi_def_cfa_offset 8
	
    # save return value and registers
    mov r11, rax
    push rdi
    push rsi
    push rdx
    push rcx
    push r8
    push r9


    call stackshield_get_old_rip@PLT
    mov rdi, rax
    call stackshield_func_exit@PLT

    # restore return value and registers
    mov rax, r11
    pop r9
    pop r8
    pop rcx
    pop rdx
    pop rsi
    pop rdi
    ret
.LVL20:
.L21:
	.cfi_restore_state
	mov	rbx, rdi
	.loc 1 202 5 is_stmt 1
	.loc 1 202 30 is_stmt 0
	lea	rax, 1[rbp]
	mov	QWORD PTR 72[rdi], rax
	.loc 1 202 36
	mov	edi, 5050
.LVL21:
	call	malloc@PLT
.LVL22:
	.loc 1 202 34
	mov	QWORD PTR 80[rbx+rbp*8], rax
	.loc 1 204 5 is_stmt 1
	lea	rdi, .LC4[rip]
	mov	eax, 0
	call	printf@PLT
.LVL23:
	.loc 1 205 5
	.loc 1 205 23 is_stmt 0
	mov	rax, QWORD PTR 72[rbx]
	.loc 1 205 5
	mov	rsi, QWORD PTR 72[rbx+rax*8]
	mov	edx, 99
	mov	edi, 0
	call	read@PLT
.LVL24:
	.loc 1 206 5 is_stmt 1
	lea	rdi, .LC5[rip]
	mov	eax, 0
	call	printf@PLT
.LVL25:
	.loc 1 207 5
	.loc 1 207 23 is_stmt 0
	mov	rax, QWORD PTR 72[rbx]
	.loc 1 207 43
	mov	rsi, QWORD PTR 72[rbx+rax*8]
	add	rsi, 50
	.loc 1 207 5
	mov	edx, 4999
	mov	edi, 0
	call	read@PLT
.LVL26:
	.loc 1 209 5 is_stmt 1
	lea	rdi, .LC6[rip]
	call	puts@PLT
.LVL27:
	.loc 1 210 5
.LBB3:
	.loc 1 210 10
	.loc 1 210 17 is_stmt 0
	mov	eax, 0
.LVL28:
.L17:
	.loc 1 211 9 is_stmt 1 discriminator 3
	.loc 1 211 19 is_stmt 0 discriminator 3
	mov	rdx, QWORD PTR 72[rbx]
	mov	rdx, QWORD PTR 72[rbx+rdx*8]
	.loc 1 211 71 discriminator 3
	mov	rcx, rax
	and	ecx, 31
	.loc 1 211 56 discriminator 3
	movzx	ecx, BYTE PTR 6[rbx+rcx]
	xor	BYTE PTR 50[rdx+rax], cl
	.loc 1 210 35 discriminator 3
	add	rax, 1
.LVL29:
	.loc 1 210 5 discriminator 3
	cmp	rax, 5000
	jne	.L17
.LBE3:
	.loc 1 213 5 is_stmt 1
	lea	rdi, .LC7[rip]
	call	puts@PLT
.LVL30:
	.loc 1 214 5
	lea	rdi, .LC8[rip]
	call	puts@PLT
.LVL31:
	jmp	.L15
.LVL32:
.L22:
	.loc 1 215 1 is_stmt 0
	call	__stack_chk_fail@PLT
.LVL33:
	.cfi_endproc
.LFE31:
	.size	default_design_toy, .-default_design_toy
	.globl	a2v
	.type	a2v, @function
a2v:
.LFB24:
	.loc 1 19 1 is_stmt 1
	
    .cfi_startproc
    # save arguments
    push rdi
    push rsi
    push rdx
    push rcx
    push r8
    push r9

    call stackshield_get_old_rip@PLT
    mov rdi, rax
    call stackshield_func_enter@PLT

    # restore arguments
    pop r9
    pop r8
    pop rcx
    pop rdx
    pop rsi
    pop rdi
.LVL34:
	sub	rsp, 24
	.cfi_def_cfa_offset 32
	.loc 1 19 1 is_stmt 0
	mov	rax, QWORD PTR fs:40
	mov	QWORD PTR 8[rsp], rax
	xor	eax, eax
	.loc 1 20 5 is_stmt 1
	.loc 1 20 17 is_stmt 0
	lea	eax, -48[rdi]
	.loc 1 20 8
	cmp	al, 9
	jbe	.L23
	.loc 1 24 5 is_stmt 1
	.loc 1 24 17 is_stmt 0
	lea	eax, -97[rdi]
	.loc 1 26 21
	sub	edi, 87
.LVL35:
	cmp	al, 6
	mov	eax, 0
	cmovb	eax, edi
.L23:
	.loc 1 29 1
	mov	rdx, QWORD PTR 8[rsp]
	xor	rdx, QWORD PTR fs:40
	jne	.L29
	add	rsp, 24
	.cfi_remember_state
	.cfi_def_cfa_offset 8
	
    # save return value and registers
    mov r11, rax
    push rdi
    push rsi
    push rdx
    push rcx
    push r8
    push r9


    call stackshield_get_old_rip@PLT
    mov rdi, rax
    call stackshield_func_exit@PLT

    # restore return value and registers
    mov rax, r11
    pop r9
    pop r8
    pop rcx
    pop rdx
    pop rsi
    pop rdi
    ret
.L29:
	.cfi_restore_state
	call	__stack_chk_fail@PLT
.LVL36:
	.cfi_endproc
.LFE24:
	.size	a2v, .-a2v
	.globl	unhexlify
	.type	unhexlify, @function
unhexlify:
.LFB25:
	.loc 1 32 1 is_stmt 1
	
    .cfi_startproc
    # save arguments
    push rdi
    push rsi
    push rdx
    push rcx
    push r8
    push r9

    call stackshield_get_old_rip@PLT
    mov rdi, rax
    call stackshield_func_enter@PLT

    # restore arguments
    pop r9
    pop r8
    pop rcx
    pop rdx
    pop rsi
    pop rdi
.LVL37:
	push	r14
	.cfi_def_cfa_offset 16
	.cfi_offset 14, -16
	push	r13
	.cfi_def_cfa_offset 24
	.cfi_offset 13, -24
	push	r12
	.cfi_def_cfa_offset 32
	.cfi_offset 12, -32
	push	rbp
	.cfi_def_cfa_offset 40
	.cfi_offset 6, -40
	push	rbx
	.cfi_def_cfa_offset 48
	.cfi_offset 3, -48
	sub	rsp, 16
	.cfi_def_cfa_offset 64
	mov	rbp, rdi
	mov	r12, rsi
	.loc 1 32 1 is_stmt 0
	mov	rax, QWORD PTR fs:40
	mov	QWORD PTR 8[rsp], rax
	xor	eax, eax
	.loc 1 33 5 is_stmt 1
.LVL38:
	.loc 1 34 5
.LBB4:
	.loc 1 34 10
	.loc 1 34 5 is_stmt 0
	mov	ebx, 0
	.loc 1 34 28
	mov	r13, -1
.LVL39:
.L31:
	.loc 1 34 28 discriminator 1
	mov	eax, 0
	mov	rcx, r13
	mov	rdi, rbp
	repnz scasb
	mov	rax, rcx
	not	rax
	sub	rax, 1
	.loc 1 34 5 discriminator 1
	lea	rdx, [rbx+rbx]
	cmp	rax, rdx
	jbe	.L35
	.loc 1 36 9 is_stmt 1 discriminator 3
	.loc 1 36 22 is_stmt 0 discriminator 3
	movsx	edi, BYTE PTR 0[rbp+rbx*2]
	call	a2v@PLT
.LVL40:
	mov	r14d, eax
	.loc 1 36 41 discriminator 3
	movsx	edi, BYTE PTR 1[rbp+rbx*2]
	call	a2v@PLT
.LVL41:
	.loc 1 36 34 discriminator 3
	sal	r14d, 4
	.loc 1 36 39 discriminator 3
	add	r14d, eax
	mov	BYTE PTR [r12+rbx], r14b
.LVL42:
	add	rbx, 1
.LVL43:
	jmp	.L31
.LVL44:
.L35:
.LBE4:
	.loc 1 38 5 is_stmt 1
	.loc 1 38 9 is_stmt 0
	movsx	rsi, ebx
	.loc 1 38 13
	mov	BYTE PTR [r12+rsi], 0
	.loc 1 39 1
	mov	rax, QWORD PTR 8[rsp]
	xor	rax, QWORD PTR fs:40
	jne	.L36
	add	rsp, 16
	.cfi_remember_state
	.cfi_def_cfa_offset 48
	pop	rbx
	.cfi_def_cfa_offset 40
.LVL45:
	pop	rbp
	.cfi_def_cfa_offset 32
	pop	r12
	.cfi_def_cfa_offset 24
.LVL46:
	pop	r13
	.cfi_def_cfa_offset 16
	pop	r14
	.cfi_def_cfa_offset 8
	
    # save return value and registers
    mov r11, rax
    push rdi
    push rsi
    push rdx
    push rcx
    push r8
    push r9


    call stackshield_get_old_rip@PLT
    mov rdi, rax
    call stackshield_func_exit@PLT

    # restore return value and registers
    mov rax, r11
    pop r9
    pop r8
    pop rcx
    pop rdx
    pop rsi
    pop rdi
    ret
.LVL47:
.L36:
	.cfi_restore_state
	call	__stack_chk_fail@PLT
.LVL48:
	.cfi_endproc
.LFE25:
	.size	unhexlify, .-unhexlify
	.section	.rodata.str1.1
.LC9:
	.string	"Write new key: "
.LC10:
	.string	"%89s"
.LC11:
	.string	"\nUpdating encryption..."
.LC12:
	.string	"Changes applied!"
	.text
	.globl	default_change_key
	.type	default_change_key, @function
default_change_key:
.LFB30:
	.loc 1 180 46 is_stmt 1
	
    .cfi_startproc
    # save arguments
    push rdi
    push rsi
    push rdx
    push rcx
    push r8
    push r9

    call stackshield_get_old_rip@PLT
    mov rdi, rax
    call stackshield_func_enter@PLT

    # restore arguments
    pop r9
    pop r8
    pop rcx
    pop rdx
    pop rsi
    pop rdi
.LVL49:
	push	rbp
	.cfi_def_cfa_offset 16
	.cfi_offset 6, -16
	push	rbx
	.cfi_def_cfa_offset 24
	.cfi_offset 3, -24
	sub	rsp, 168
	.cfi_def_cfa_offset 192
	mov	rbx, rdi
	.loc 1 180 46 is_stmt 0
	mov	rax, QWORD PTR fs:40
	mov	QWORD PTR 152[rsp], rax
	xor	eax, eax
	.loc 1 181 5 is_stmt 1
	.loc 1 182 5
	.loc 1 183 5
	lea	rdi, .LC9[rip]
.LVL50:
	call	printf@PLT
.LVL51:
	.loc 1 184 5
	lea	rbp, 48[rsp]
	mov	rsi, rbp
	lea	rdi, .LC10[rip]
	mov	eax, 0
	call	__isoc99_scanf@PLT
.LVL52:
	.loc 1 185 5
	mov	rsi, rsp
	mov	rdi, rbp
	call	unhexlify@PLT
.LVL53:
	.loc 1 187 5
	lea	rdi, .LC11[rip]
	call	puts@PLT
.LVL54:
	.loc 1 188 5
.LBB5:
	.loc 1 188 10
	.loc 1 188 5 is_stmt 0
	cmp	QWORD PTR 72[rbx], 0
	je	.L38
	lea	rdi, 80[rbx]
	.loc 1 188 17
	mov	r8d, 0
.LVL55:
.L39:
.LBB6:
	.loc 1 189 21
	mov	eax, 0
.LVL56:
.L40:
	.loc 1 190 13 is_stmt 1 discriminator 3
	.loc 1 190 23 is_stmt 0 discriminator 3
	mov	rcx, QWORD PTR [rdi]
	.loc 1 190 58 discriminator 3
	mov	rsi, rax
	and	esi, 31
	.loc 1 190 43 discriminator 3
	movzx	edx, BYTE PTR 6[rbx+rsi]
	xor	dl, BYTE PTR [rsp+rsi]
	xor	BYTE PTR 50[rcx+rax], dl
	.loc 1 189 39 discriminator 3
	add	rax, 1
.LVL57:
	.loc 1 189 9 discriminator 3
	cmp	rax, 5000
	jne	.L40
.LBE6:
	.loc 1 188 45 discriminator 2
	add	r8, 1
.LVL58:
	add	rdi, 8
	.loc 1 188 5 discriminator 2
	cmp	QWORD PTR 72[rbx], r8
	ja	.L39
.LVL59:
.L38:
.LBE5:
.LBB7:
	.loc 1 194 17
	mov	eax, 0
.LVL60:
.L41:
	.loc 1 195 9 is_stmt 1 discriminator 3
	.loc 1 195 22 is_stmt 0 discriminator 3
	movzx	edx, BYTE PTR [rsp+rax]
	mov	BYTE PTR 6[rbx+rax], dl
	.loc 1 194 33 discriminator 3
	add	rax, 1
.LVL61:
	.loc 1 194 5 discriminator 3
	cmp	rax, 36
	jne	.L41
.LBE7:
	.loc 1 197 5 is_stmt 1
	lea	rdi, .LC12[rip]
	call	puts@PLT
.LVL62:
	.loc 1 198 1 is_stmt 0
	mov	rax, QWORD PTR 152[rsp]
	xor	rax, QWORD PTR fs:40
	jne	.L46
	add	rsp, 168
	.cfi_remember_state
	.cfi_def_cfa_offset 24
	pop	rbx
	.cfi_def_cfa_offset 16
.LVL63:
	pop	rbp
	.cfi_def_cfa_offset 8
	
    # save return value and registers
    mov r11, rax
    push rdi
    push rsi
    push rdx
    push rcx
    push r8
    push r9


    call stackshield_get_old_rip@PLT
    mov rdi, rax
    call stackshield_func_exit@PLT

    # restore return value and registers
    mov rax, r11
    pop r9
    pop r8
    pop rcx
    pop rdx
    pop rsi
    pop rdi
    ret
.LVL64:
.L46:
	.cfi_restore_state
	call	__stack_chk_fail@PLT
.LVL65:
	.cfi_endproc
.LFE30:
	.size	default_change_key, .-default_change_key
	.globl	init
	.type	init, @function
init:
.LFB26:
	.loc 1 72 13 is_stmt 1
	
    .cfi_startproc
    # save arguments
    push rdi
    push rsi
    push rdx
    push rcx
    push r8
    push r9

    call stackshield_get_old_rip@PLT
    mov rdi, rax
    call stackshield_func_enter@PLT

    # restore arguments
    pop r9
    pop r8
    pop rcx
    pop rdx
    pop rsi
    pop rdi
	push	rbx
	.cfi_def_cfa_offset 16
	.cfi_offset 3, -16
	sub	rsp, 16
	.cfi_def_cfa_offset 32
	.loc 1 72 13 is_stmt 0
	mov	rax, QWORD PTR fs:40
	mov	QWORD PTR 8[rsp], rax
	xor	eax, eax
	.loc 1 73 5 is_stmt 1
	mov	ecx, 0
	mov	edx, 2
	mov	esi, 0
	mov	rax, QWORD PTR stdin@GOTPCREL[rip]
	mov	rdi, QWORD PTR [rax]
	call	setvbuf@PLT
.LVL66:
	.loc 1 74 5
	mov	ecx, 0
	mov	edx, 2
	mov	esi, 0
	mov	rax, QWORD PTR stdout@GOTPCREL[rip]
	mov	rdi, QWORD PTR [rax]
	call	setvbuf@PLT
.LVL67:
	.loc 1 75 5
	mov	ecx, 0
	mov	edx, 2
	mov	esi, 0
	mov	rax, QWORD PTR stderr@GOTPCREL[rip]
	mov	rdi, QWORD PTR [rax]
	call	setvbuf@PLT
.LVL68:
	.loc 1 76 5
	call	initscr@PLT
.LVL69:
	.loc 1 77 5
	call	start_color@PLT
.LVL70:
	.loc 1 78 5
	mov	edx, 0
	mov	esi, 1
	mov	edi, 1
	call	init_pair@PLT
.LVL71:
	.loc 1 79 5
	mov	edx, 0
	mov	esi, 4
	mov	edi, 2
	call	init_pair@PLT
.LVL72:
	.loc 1 80 5
	mov	edx, 0
	mov	esi, 5
	mov	edi, 3
	call	init_pair@PLT
.LVL73:
	.loc 1 81 5
	mov	edx, 0
	mov	esi, 7
	mov	edi, 4
	call	init_pair@PLT
.LVL74:
	.loc 1 82 5
	mov	edx, 0
	mov	esi, 2
	mov	edi, 5
	call	init_pair@PLT
.LVL75:
	.loc 1 84 5
	mov	rbx, QWORD PTR stdscr@GOTPCREL[rip]
	mov	esi, 1280
	mov	rdi, QWORD PTR [rbx]
	call	wbkgd@PLT
.LVL76:
	.loc 1 85 5
	mov	rax, QWORD PTR [rbx]
	test	rax, rax
	je	.L48
	.loc 1 85 5 is_stmt 0 discriminator 1
	movsx	edx, WORD PTR 4[rax]
	add	edx, 1
	mov	rcx, QWORD PTR terminal_rows@GOTPCREL[rip]
	mov	DWORD PTR [rcx], edx
	movsx	eax, WORD PTR 6[rax]
	add	eax, 1
.L49:
	.loc 1 85 5 discriminator 8
	mov	rdx, QWORD PTR terminal_cols@GOTPCREL[rip]
	mov	DWORD PTR [rdx], eax
	.loc 1 86 1 discriminator 8
	mov	rax, QWORD PTR 8[rsp]
	xor	rax, QWORD PTR fs:40
	jne	.L53
	.loc 1 86 1
	add	rsp, 16
	.cfi_remember_state
	.cfi_def_cfa_offset 16
	pop	rbx
	.cfi_def_cfa_offset 8
	
    # save return value and registers
    mov r11, rax
    push rdi
    push rsi
    push rdx
    push rcx
    push r8
    push r9


    call stackshield_get_old_rip@PLT
    mov rdi, rax
    call stackshield_func_exit@PLT

    # restore return value and registers
    mov rax, r11
    pop r9
    pop r8
    pop rcx
    pop rdx
    pop rsi
    pop rdi
    ret
.L48:
	.cfi_restore_state
	.loc 1 85 5
	mov	rax, QWORD PTR terminal_rows@GOTPCREL[rip]
	mov	DWORD PTR [rax], -1
	mov	eax, -1
	jmp	.L49
.L53:
	.loc 1 86 1
	call	__stack_chk_fail@PLT
.LVL77:
	.cfi_endproc
.LFE26:
	.size	init, .-init
	.globl	title
	.type	title, @function
title:
.LFB27:
	.loc 1 88 32 is_stmt 1
	
    .cfi_startproc
    # save arguments
    push rdi
    push rsi
    push rdx
    push rcx
    push r8
    push r9

    call stackshield_get_old_rip@PLT
    mov rdi, rax
    call stackshield_func_enter@PLT

    # restore arguments
    pop r9
    pop r8
    pop rcx
    pop rdx
    pop rsi
    pop rdi
.LVL78:
	push	rbp
	.cfi_def_cfa_offset 16
	.cfi_offset 6, -16
	push	rbx
	.cfi_def_cfa_offset 24
	.cfi_offset 3, -24
	sub	rsp, 24
	.cfi_def_cfa_offset 48
	mov	rbx, rdi
	.loc 1 88 32 is_stmt 0
	mov	rax, QWORD PTR fs:40
	mov	QWORD PTR 8[rsp], rax
	xor	eax, eax
	.loc 1 89 5 is_stmt 1
	mov	rcx, -1
	repnz scasb
.LVL79:
	mov	rax, QWORD PTR terminal_cols@GOTPCREL[rip]
	movsx	rax, DWORD PTR [rax]
	lea	rdx, 2[rcx+rax]
	shr	rdx
	mov	rbp, QWORD PTR stdscr@GOTPCREL[rip]
	mov	rdi, QWORD PTR 0[rbp]
	call	wmove@PLT
.LVL80:
	.loc 1 90 5
	mov	edx, 0
	mov	esi, 2097152
	mov	rdi, QWORD PTR 0[rbp]
	call	wattr_on@PLT
.LVL81:
	.loc 1 91 5
.LBB8:
	.loc 1 91 10
	.loc 1 91 24 is_stmt 0
	movzx	esi, BYTE PTR [rbx]
	.loc 1 91 5
	test	sil, sil
	je	.L55
	add	rbx, 1
	.loc 1 92 9
	mov	rbp, QWORD PTR stdscr@GOTPCREL[rip]
.LVL82:
.L56:
	.loc 1 92 9 is_stmt 1 discriminator 3
	movsx	esi, sil
	mov	rdi, QWORD PTR 0[rbp]
	call	waddch@PLT
.LVL83:
	.loc 1 93 9 discriminator 3
	mov	edi, 50
	call	usleep@PLT
.LVL84:
	.loc 1 94 9 discriminator 3
	mov	rdi, QWORD PTR 0[rbp]
	call	wrefresh@PLT
.LVL85:
	add	rbx, 1
.LVL86:
	.loc 1 91 24 is_stmt 0 discriminator 3
	movzx	esi, BYTE PTR -1[rbx]
	.loc 1 91 5 discriminator 3
	test	sil, sil
	jne	.L56
.L55:
.LBE8:
	.loc 1 96 5 is_stmt 1
	mov	edx, 0
	mov	esi, 2097152
	mov	rax, QWORD PTR stdscr@GOTPCREL[rip]
	mov	rdi, QWORD PTR [rax]
	call	wattr_off@PLT
.LVL87:
	.loc 1 97 1 is_stmt 0
	mov	rax, QWORD PTR 8[rsp]
	xor	rax, QWORD PTR fs:40
	jne	.L60
	add	rsp, 24
	.cfi_remember_state
	.cfi_def_cfa_offset 24
	pop	rbx
	.cfi_def_cfa_offset 16
	pop	rbp
	.cfi_def_cfa_offset 8
	
    # save return value and registers
    mov r11, rax
    push rdi
    push rsi
    push rdx
    push rcx
    push r8
    push r9


    call stackshield_get_old_rip@PLT
    mov rdi, rax
    call stackshield_func_exit@PLT

    # restore return value and registers
    mov rax, r11
    pop r9
    pop r8
    pop rcx
    pop rdx
    pop rsi
    pop rdi
    ret
.L60:
	.cfi_restore_state
	call	__stack_chk_fail@PLT
.LVL88:
	.cfi_endproc
.LFE27:
	.size	title, .-title
	.section	.rodata.str1.8
	.align 8
.LC13:
	.string	"Press any key to proceed to the login interface..."
	.text
	.globl	print_logo
	.type	print_logo, @function
print_logo:
.LFB28:
	.loc 1 99 19 is_stmt 1
	
    .cfi_startproc
    # save arguments
    push rdi
    push rsi
    push rdx
    push rcx
    push r8
    push r9

    call stackshield_get_old_rip@PLT
    mov rdi, rax
    call stackshield_func_enter@PLT

    # restore arguments
    pop r9
    pop r8
    pop rcx
    pop rdx
    pop rsi
    pop rdi
	push	r15
	.cfi_def_cfa_offset 16
	.cfi_offset 15, -16
	push	r14
	.cfi_def_cfa_offset 24
	.cfi_offset 14, -24
	push	r13
	.cfi_def_cfa_offset 32
	.cfi_offset 13, -32
	push	r12
	.cfi_def_cfa_offset 40
	.cfi_offset 12, -40
	push	rbp
	.cfi_def_cfa_offset 48
	.cfi_offset 6, -48
	push	rbx
	.cfi_def_cfa_offset 56
	.cfi_offset 3, -56
	sub	rsp, 88
	.cfi_def_cfa_offset 144
	.loc 1 99 19 is_stmt 0
	mov	rax, QWORD PTR fs:40
	mov	QWORD PTR 72[rsp], rax
	xor	eax, eax
	.loc 1 100 5 is_stmt 1
	.loc 1 100 10 is_stmt 0
	movabs	rax, 7020395433179637827
	movabs	rdx, 7306916047138660467
	mov	QWORD PTR [rsp], rax
	mov	QWORD PTR 8[rsp], rdx
	movabs	rax, 8320773185401152877
	mov	QWORD PTR 16[rsp], rax
	mov	DWORD PTR 24[rsp], 7169396
	.loc 1 101 5 is_stmt 1
	.loc 1 101 10 is_stmt 0
	movabs	rax, 3472893377595401593
	movabs	rdx, 8243105118546305078
	mov	QWORD PTR 32[rsp], rax
	mov	QWORD PTR 40[rsp], rdx
	movabs	rax, 8101813437696664608
	mov	QWORD PTR 48[rsp], rax
	mov	DWORD PTR 56[rsp], 1953391981
	mov	WORD PTR 60[rsp], 41
	.loc 1 102 5 is_stmt 1
	mov	rdi, rsp
	mov	esi, 0
	call	title@PLT
.LVL89:
	.loc 1 103 5
	lea	rdi, 32[rsp]
	mov	esi, 1
	call	title@PLT
.LVL90:
	.loc 1 105 5
	.loc 1 105 11 is_stmt 0
	mov	edi, 0
	call	time@PLT
.LVL91:
	.loc 1 105 5
	mov	edi, eax
	call	srand@PLT
.LVL92:
	.loc 1 106 5 is_stmt 1
	.loc 1 107 5
	.loc 1 108 5
	mov	rax, QWORD PTR terminal_cols@GOTPCREL[rip]
	mov	edx, DWORD PTR [rax]
	lea	eax, -60[rdx]
	mov	edx, eax
	shr	edx, 31
	add	edx, eax
	sar	edx
	mov	esi, 2
	mov	rax, QWORD PTR stdscr@GOTPCREL[rip]
	mov	rdi, QWORD PTR [rax]
	call	wmove@PLT
.LVL93:
	.loc 1 109 5
.LBB9:
	.loc 1 109 10
	.loc 1 109 25 is_stmt 0
	mov	rax, QWORD PTR logo@GOTPCREL[rip]
	movzx	eax, BYTE PTR [rax]
	.loc 1 109 5
	test	al, al
	je	.L62
	mov	rbx, QWORD PTR logo@GOTPCREL[rip]
.LBB10:
	.loc 1 111 13
	mov	r12d, -1
	jmp	.L72
.LVL94:
.L77:
	.loc 1 111 13 is_stmt 1
	mov	rax, QWORD PTR stdscr@GOTPCREL[rip]
	mov	rdi, QWORD PTR [rax]
	mov	ebp, r12d
.LVL95:
	test	rdi, rdi
	je	.L64
	.loc 1 111 13 is_stmt 0 discriminator 1
	movsx	ebp, WORD PTR [rdi]
.L64:
.LVL96:
	.loc 1 112 13 is_stmt 1 discriminator 4
	mov	rax, QWORD PTR terminal_cols@GOTPCREL[rip]
	mov	edx, DWORD PTR [rax]
	lea	eax, -60[rdx]
	mov	edx, eax
	shr	edx, 31
	add	edx, eax
	sar	edx
	lea	esi, 1[rbp]
	call	wmove@PLT
.LVL97:
	.loc 1 113 13 discriminator 4
	jmp	.L65
.LVL98:
.L78:
	cmp	sil, 10
	je	.L68
	cmp	sil, 37
	jne	.L70
	.loc 1 124 17
	mov	r13, QWORD PTR stdscr@GOTPCREL[rip]
	mov	edx, 0
	mov	esi, 1048576
	mov	rdi, QWORD PTR 0[r13]
	call	wattr_on@PLT
.LVL99:
	.loc 1 125 17
	movsx	esi, BYTE PTR [rbx]
	mov	rdi, QWORD PTR 0[r13]
	call	waddch@PLT
.LVL100:
	.loc 1 126 17
	mov	edx, 0
	mov	esi, 1048576
	mov	rdi, QWORD PTR 0[r13]
	call	wattr_off@PLT
.LVL101:
	.loc 1 127 17
	jmp	.L68
.LVL102:
.L79:
	.loc 1 119 17
	sal	ecx, 8
.LVL103:
	movzx	r13d, cx
	or	r13d, 524288
	mov	r15, QWORD PTR stdscr@GOTPCREL[rip]
	mov	edx, 0
	mov	esi, r13d
	mov	rdi, QWORD PTR [r15]
	call	wattr_on@PLT
.LVL104:
	.loc 1 120 17
	movsx	esi, BYTE PTR [rbx]
	mov	rdi, QWORD PTR [r15]
	call	waddch@PLT
.LVL105:
	.loc 1 121 17
	mov	edx, 0
	mov	esi, r13d
	mov	rdi, QWORD PTR [r15]
	call	wattr_off@PLT
.LVL106:
	.loc 1 122 17
.L68:
	.loc 1 144 9
	mov	edi, 2
	call	usleep@PLT
.LVL107:
	.loc 1 145 9
	mov	rax, QWORD PTR stdscr@GOTPCREL[rip]
	mov	rdi, QWORD PTR [rax]
	call	wrefresh@PLT
.LVL108:
.L65:
	add	rbx, 1
.LVL109:
.LBE10:
	.loc 1 109 25 is_stmt 0 discriminator 2
	movzx	eax, BYTE PTR [rbx]
	.loc 1 109 5 discriminator 2
	test	al, al
	je	.L62
.L72:
.LVL110:
.LBB11:
	.loc 1 110 8 is_stmt 1
	.loc 1 110 11 is_stmt 0
	cmp	al, 10
	je	.L77
	.loc 1 115 8 is_stmt 1
	.loc 1 115 20 is_stmt 0
	call	rand@PLT
.LVL111:
	mov	ecx, eax
	.loc 1 115 27
	mov	edx, 1431655766
	imul	edx
	mov	eax, ecx
	sar	eax, 31
	sub	edx, eax
	lea	eax, [rdx+rdx*2]
	sub	ecx, eax
	.loc 1 115 12
	add	ecx, 1
.LVL112:
	.loc 1 117 9 is_stmt 1
	mov	r14, rbx
	.loc 1 117 21 is_stmt 0
	movzx	esi, BYTE PTR [rbx]
	cmp	sil, 42
	je	.L66
	jle	.L78
	cmp	sil, 79
	je	.L71
	cmp	sil, 111
	je	.L71
	cmp	sil, 64
	je	.L79
.L70:
	.loc 1 141 17 is_stmt 1
	movsx	esi, sil
	mov	rax, QWORD PTR stdscr@GOTPCREL[rip]
	mov	rdi, QWORD PTR [rax]
	call	waddch@PLT
.LVL113:
	.loc 1 142 17
	jmp	.L68
.LVL114:
.L71:
	.loc 1 130 17
	sal	ecx, 8
.LVL115:
	movzx	r13d, cx
	or	r13d, 2097152
	mov	r15, QWORD PTR stdscr@GOTPCREL[rip]
	mov	edx, 0
	mov	esi, r13d
	mov	rdi, QWORD PTR [r15]
	call	wattr_on@PLT
.LVL116:
	.loc 1 131 17
	movsx	esi, BYTE PTR [r14]
	mov	rdi, QWORD PTR [r15]
	call	waddch@PLT
.LVL117:
	.loc 1 132 17
	mov	edx, 0
	mov	esi, r13d
	mov	rdi, QWORD PTR [r15]
	call	wattr_off@PLT
.LVL118:
	.loc 1 133 17
	jmp	.L68
.LVL119:
.L66:
	.loc 1 135 17
	mov	r13, QWORD PTR stdscr@GOTPCREL[rip]
	mov	edx, 0
	mov	esi, 1024
	mov	rdi, QWORD PTR 0[r13]
	call	wattr_on@PLT
.LVL120:
	.loc 1 136 17
	movsx	esi, BYTE PTR [rbx]
	mov	rdi, QWORD PTR 0[r13]
	call	waddch@PLT
.LVL121:
	.loc 1 137 17
	mov	edx, 0
	mov	esi, 1024
	mov	rdi, QWORD PTR 0[r13]
	call	wattr_off@PLT
.LVL122:
	jmp	.L68
.LVL123:
.L62:
.LBE11:
.LBE9:
	.loc 1 147 5
	lea	esi, 2[rbp]
	mov	rbx, QWORD PTR stdscr@GOTPCREL[rip]
	mov	edx, 0
	mov	rdi, QWORD PTR [rbx]
	call	wmove@PLT
.LVL124:
	.loc 1 148 5
	lea	rdi, .LC13[rip]
	mov	eax, 0
	call	printw@PLT
.LVL125:
	.loc 1 150 5
	mov	rdi, QWORD PTR [rbx]
	call	wgetch@PLT
.LVL126:
	.loc 1 151 5
	call	endwin@PLT
.LVL127:
	.loc 1 152 1 is_stmt 0
	mov	rax, QWORD PTR 72[rsp]
	xor	rax, QWORD PTR fs:40
	jne	.L80
	add	rsp, 88
	.cfi_remember_state
	.cfi_def_cfa_offset 56
	pop	rbx
	.cfi_def_cfa_offset 48
	pop	rbp
	.cfi_def_cfa_offset 40
.LVL128:
	pop	r12
	.cfi_def_cfa_offset 32
	pop	r13
	.cfi_def_cfa_offset 24
	pop	r14
	.cfi_def_cfa_offset 16
	pop	r15
	.cfi_def_cfa_offset 8
	
    # save return value and registers
    mov r11, rax
    push rdi
    push rsi
    push rdx
    push rcx
    push r8
    push r9


    call stackshield_get_old_rip@PLT
    mov rdi, rax
    call stackshield_func_exit@PLT

    # restore return value and registers
    mov rax, r11
    pop r9
    pop r8
    pop rcx
    pop rdx
    pop rsi
    pop rdi
    ret
.LVL129:
.L80:
	.cfi_restore_state
	call	__stack_chk_fail@PLT
.LVL130:
	.cfi_endproc
.LFE28:
	.size	print_logo, .-print_logo
	.globl	init_user
	.type	init_user, @function
init_user:
.LFB33:
	.loc 1 221 66 is_stmt 1
	
    .cfi_startproc
    # save arguments
    push rdi
    push rsi
    push rdx
    push rcx
    push r8
    push r9

    call stackshield_get_old_rip@PLT
    mov rdi, rax
    call stackshield_func_enter@PLT

    # restore arguments
    pop r9
    pop r8
    pop rcx
    pop rdx
    pop rsi
    pop rdi
.LVL131:
	sub	rsp, 24
	.cfi_def_cfa_offset 32
	.loc 1 221 66 is_stmt 0
	mov	rax, QWORD PTR fs:40
	mov	QWORD PTR 8[rsp], rax
	xor	eax, eax
	.loc 1 222 5 is_stmt 1
	mov	eax, DWORD PTR [rsi]
	mov	DWORD PTR [rdi], eax
	movzx	eax, WORD PTR 4[rsi]
	mov	WORD PTR 4[rdi], ax
	.loc 1 223 5
	movdqu	xmm0, XMMWORD PTR [rdx]
	movups	XMMWORD PTR 6[rdi], xmm0
	movdqu	xmm1, XMMWORD PTR 16[rdx]
	movups	XMMWORD PTR 22[rdi], xmm1
	movzx	edx, BYTE PTR 32[rdx]
.LVL132:
	mov	BYTE PTR 38[rdi], dl
	.loc 1 224 5
	.loc 1 224 24 is_stmt 0
	mov	rax, QWORD PTR default_print_info@GOTPCREL[rip]
	mov	QWORD PTR 40[rdi], rax
	.loc 1 225 5 is_stmt 1
	.loc 1 225 24 is_stmt 0
	mov	rax, QWORD PTR default_change_key@GOTPCREL[rip]
	mov	QWORD PTR 48[rdi], rax
	.loc 1 226 5 is_stmt 1
	.loc 1 226 24 is_stmt 0
	mov	rax, QWORD PTR default_design_toy@GOTPCREL[rip]
	mov	QWORD PTR 56[rdi], rax
	.loc 1 227 5 is_stmt 1
	.loc 1 227 23 is_stmt 0
	mov	rax, QWORD PTR default_view_toys@GOTPCREL[rip]
	mov	QWORD PTR 64[rdi], rax
	.loc 1 228 5 is_stmt 1
	.loc 1 228 22 is_stmt 0
	mov	QWORD PTR 72[rdi], 0
	.loc 1 229 5 is_stmt 1
.LBB12:
	.loc 1 229 10
.LVL133:
	lea	rax, 80[rdi]
	lea	rdx, 880[rdi]
.LVL134:
.L82:
	.loc 1 230 9 discriminator 3
	.loc 1 230 25 is_stmt 0 discriminator 3
	mov	QWORD PTR [rax], 0
	add	rax, 8
	.loc 1 229 5 discriminator 3
	cmp	rax, rdx
	jne	.L82
.LBE12:
	.loc 1 232 1
	mov	rax, QWORD PTR 8[rsp]
	xor	rax, QWORD PTR fs:40
	jne	.L86
	add	rsp, 24
	.cfi_remember_state
	.cfi_def_cfa_offset 8
	
    # save return value and registers
    mov r11, rax
    push rdi
    push rsi
    push rdx
    push rcx
    push r8
    push r9


    call stackshield_get_old_rip@PLT
    mov rdi, rax
    call stackshield_func_exit@PLT

    # restore return value and registers
    mov rax, r11
    pop r9
    pop r8
    pop rcx
    pop rdx
    pop rsi
    pop rdi
    ret
.L86:
	.cfi_restore_state
	call	__stack_chk_fail@PLT
.LVL135:
	.cfi_endproc
.LFE33:
	.size	init_user, .-init_user
	.section	.rodata.str1.1
.LC14:
	.string	"DEBUG %p: %s\n"
	.text
	.globl	debug_print
	.type	debug_print, @function
debug_print:
.LFB34:
	.loc 1 234 36 is_stmt 1
	
    .cfi_startproc
    # save arguments
    push rdi
    push rsi
    push rdx
    push rcx
    push r8
    push r9

    call stackshield_get_old_rip@PLT
    mov rdi, rax
    call stackshield_func_enter@PLT

    # restore arguments
    pop r9
    pop r8
    pop rcx
    pop rdx
    pop rsi
    pop rdi
.LVL136:
	push	rbx
	.cfi_def_cfa_offset 16
	.cfi_offset 3, -16
	sub	rsp, 16
	.cfi_def_cfa_offset 32
	mov	rsi, rdi
	.loc 1 234 36 is_stmt 0
	mov	ebx, 40
	mov	rax, QWORD PTR fs:[rbx]
	mov	QWORD PTR 8[rsp], rax
	xor	eax, eax
	.loc 1 235 5 is_stmt 1
	mov	rdx, rdi
	lea	rdi, .LC14[rip]
.LVL137:
	call	printf@PLT
.LVL138:
	.loc 1 236 1 is_stmt 0
	mov	rax, QWORD PTR 8[rsp]
	xor	rax, QWORD PTR fs:[rbx]
	jne	.L90
	add	rsp, 16
	.cfi_remember_state
	.cfi_def_cfa_offset 16
	pop	rbx
	.cfi_def_cfa_offset 8
	
    # save return value and registers
    mov r11, rax
    push rdi
    push rsi
    push rdx
    push rcx
    push r8
    push r9


    call stackshield_get_old_rip@PLT
    mov rdi, rax
    call stackshield_func_exit@PLT

    # restore return value and registers
    mov rax, r11
    pop r9
    pop r8
    pop rcx
    pop rdx
    pop rsi
    pop rdi
    ret
.L90:
	.cfi_restore_state
	call	__stack_chk_fail@PLT
.LVL139:
	.cfi_endproc
.LFE34:
	.size	debug_print, .-debug_print
	.section	.rodata.str1.8
	.align 8
.LC15:
	.string	"[WARN] this version of software is unstable and under development"
	.section	.rodata.str1.1
.LC16:
	.string	"1. Show info (show)"
	.section	.rodata.str1.8
	.align 8
.LC17:
	.string	"2. Change private key (change)"
	.section	.rodata.str1.1
.LC18:
	.string	"3. Design toy (design)"
.LC19:
	.string	"4. View toys (view)"
	.section	.rodata.str1.8
	.align 8
.LC20:
	.string	"5. Request feature/report bug (report)"
	.section	.rodata.str1.1
.LC21:
	.string	"6. Quit (quit)"
	.text
	.globl	print_menu
	.type	print_menu, @function
print_menu:
.LFB35:
	.loc 1 238 19 is_stmt 1
	
    .cfi_startproc
    # save arguments
    push rdi
    push rsi
    push rdx
    push rcx
    push r8
    push r9

    call stackshield_get_old_rip@PLT
    mov rdi, rax
    call stackshield_func_enter@PLT

    # restore arguments
    pop r9
    pop r8
    pop rcx
    pop rdx
    pop rsi
    pop rdi
	push	rbx
	.cfi_def_cfa_offset 16
	.cfi_offset 3, -16
	sub	rsp, 16
	.cfi_def_cfa_offset 32
	.loc 1 238 19 is_stmt 0
	mov	ebx, 40
	mov	rax, QWORD PTR fs:[rbx]
	mov	QWORD PTR 8[rsp], rax
	xor	eax, eax
	.loc 1 239 5 is_stmt 1
	lea	rdi, .LC15[rip]
	call	puts@PLT
.LVL140:
	.loc 1 240 5
	lea	rdi, .LC16[rip]
	call	puts@PLT
.LVL141:
	.loc 1 241 5
	lea	rdi, .LC17[rip]
	call	puts@PLT
.LVL142:
	.loc 1 242 5
	lea	rdi, .LC18[rip]
	call	puts@PLT
.LVL143:
	.loc 1 243 5
	lea	rdi, .LC19[rip]
	call	puts@PLT
.LVL144:
	.loc 1 244 5
	lea	rdi, .LC20[rip]
	call	puts@PLT
.LVL145:
	.loc 1 245 5
	lea	rdi, .LC21[rip]
	call	puts@PLT
.LVL146:
	.loc 1 246 1 is_stmt 0
	mov	rax, QWORD PTR 8[rsp]
	xor	rax, QWORD PTR fs:[rbx]
	jne	.L94
	add	rsp, 16
	.cfi_remember_state
	.cfi_def_cfa_offset 16
	pop	rbx
	.cfi_def_cfa_offset 8
	
    # save return value and registers
    mov r11, rax
    push rdi
    push rsi
    push rdx
    push rcx
    push r8
    push r9


    call stackshield_get_old_rip@PLT
    mov rdi, rax
    call stackshield_func_exit@PLT

    # restore return value and registers
    mov rax, r11
    pop r9
    pop r8
    pop rcx
    pop rdx
    pop rsi
    pop rdi
    ret
.L94:
	.cfi_restore_state
	call	__stack_chk_fail@PLT
.LVL147:
	.cfi_endproc
.LFE35:
	.size	print_menu, .-print_menu
	.globl	quit
	.type	quit, @function
quit:
.LFB36:
	.loc 1 248 78 is_stmt 1
	
    .cfi_startproc
    # save arguments
    push rdi
    push rsi
    push rdx
    push rcx
    push r8
    push r9

    call stackshield_get_old_rip@PLT
    mov rdi, rax
    call stackshield_func_enter@PLT

    # restore arguments
    pop r9
    pop r8
    pop rcx
    pop rdx
    pop rsi
    pop rdi
.LVL148:
	sub	rsp, 24
	.cfi_def_cfa_offset 32
	.loc 1 248 78 is_stmt 0
	mov	rdx, QWORD PTR fs:40
	mov	QWORD PTR 8[rsp], rdx
	xor	edx, edx
	.loc 1 249 5 is_stmt 1
	.loc 1 249 8 is_stmt 0
	test	rdi, rdi
	je	.L96
	mov	rax, rdi
	.loc 1 250 9 is_stmt 1
	mov	rdi, rsi
.LVL149:
	call	rax
.LVL150:
.L96:
	.loc 1 253 5
	mov	edi, 0
	call	exit@PLT
.LVL151:
	.cfi_endproc
.LFE36:
	.size	quit, .-quit
	.section	.rodata.str1.8
	.align 8
.LC22:
	.string	"Please write your request/bug report: "
	.section	.rodata.str1.1
.LC23:
	.string	"Thank you!"
	.text
	.globl	report
	.type	report, @function
report:
.LFB37:
	.loc 1 256 15
	
    .cfi_startproc
    # save arguments
    push rdi
    push rsi
    push rdx
    push rcx
    push r8
    push r9

    call stackshield_get_old_rip@PLT
    mov rdi, rax
    call stackshield_func_enter@PLT

    # restore arguments
    pop r9
    pop r8
    pop rcx
    pop rdx
    pop rsi
    pop rdi
	push	rbp
	.cfi_def_cfa_offset 16
	.cfi_offset 6, -16
	push	rbx
	.cfi_def_cfa_offset 24
	.cfi_offset 3, -24
	sub	rsp, 88
	.cfi_def_cfa_offset 112
	.loc 1 256 15 is_stmt 0
	mov	ebx, 40
	mov	rax, QWORD PTR fs:[rbx]
	mov	QWORD PTR 72[rsp], rax
	xor	eax, eax
	.loc 1 257 5 is_stmt 1
	.loc 1 258 5
	mov	rbp, rsp
	movabs	rax, 6365935209750747224
	movabs	rdx, 6365935209750747224
	mov	QWORD PTR [rsp], rax
	mov	QWORD PTR 8[rsp], rdx
	mov	QWORD PTR 16[rsp], rax
	mov	QWORD PTR 24[rsp], rdx
	mov	QWORD PTR 32[rsp], rax
	mov	QWORD PTR 40[rsp], rdx
	mov	QWORD PTR 48[rsp], rax
	mov	QWORD PTR 56[rsp], rdx
	.loc 1 259 5
	lea	rdi, .LC22[rip]
	call	puts@PLT
.LVL152:
	.loc 1 260 5
	mov	edx, 200
	mov	rsi, rbp
	mov	edi, 0
	call	read@PLT
.LVL153:
	.loc 1 261 5
	lea	rdi, .LC23[rip]
	call	puts@PLT
.LVL154:
	.loc 1 262 1 is_stmt 0
	mov	rax, QWORD PTR 72[rsp]
	xor	rax, QWORD PTR fs:[rbx]
	jne	.L102
	add	rsp, 88
	.cfi_remember_state
	.cfi_def_cfa_offset 24
	pop	rbx
	.cfi_def_cfa_offset 16
	pop	rbp
	.cfi_def_cfa_offset 8
	
    # save return value and registers
    mov r11, rax
    push rdi
    push rsi
    push rdx
    push rcx
    push r8
    push r9


    call stackshield_get_old_rip@PLT
    mov rdi, rax
    call stackshield_func_exit@PLT

    # restore return value and registers
    mov rax, r11
    pop r9
    pop r8
    pop rcx
    pop rdx
    pop rsi
    pop rdi
    ret
.L102:
	.cfi_restore_state
	call	__stack_chk_fail@PLT
.LVL155:
	.cfi_endproc
.LFE37:
	.size	report, .-report
	.section	.rodata.str1.8
	.align 8
.LC24:
	.string	"Experimental features are going to be enabled!"
	.text
	.globl	experimental
	.type	experimental, @function
experimental:
.LFB39:
	.loc 1 269 66 is_stmt 1
	
    .cfi_startproc
    # save arguments
    push rdi
    push rsi
    push rdx
    push rcx
    push r8
    push r9

    call stackshield_get_old_rip@PLT
    mov rdi, rax
    call stackshield_func_enter@PLT

    # restore arguments
    pop r9
    pop r8
    pop rcx
    pop rdx
    pop rsi
    pop rdi
.LVL156:
	push	rbp
	.cfi_def_cfa_offset 16
	.cfi_offset 6, -16
	push	rbx
	.cfi_def_cfa_offset 24
	.cfi_offset 3, -24
	sub	rsp, 24
	.cfi_def_cfa_offset 48
	mov	rbp, rdi
	.loc 1 269 66 is_stmt 0
	mov	ebx, 40
	mov	rax, QWORD PTR fs:[rbx]
	mov	QWORD PTR 8[rsp], rax
	xor	eax, eax
	.loc 1 270 5 is_stmt 1
	lea	rdi, .LC24[rip]
.LVL157:
	call	puts@PLT
.LVL158:
	.loc 1 271 5
	.loc 1 271 27 is_stmt 0
	mov	rax, QWORD PTR session_handler@GOTPCREL[rip]
	mov	QWORD PTR 0[rbp], rax
	.loc 1 272 1
	mov	rax, QWORD PTR 8[rsp]
	xor	rax, QWORD PTR fs:[rbx]
	jne	.L106
	add	rsp, 24
	.cfi_remember_state
	.cfi_def_cfa_offset 24
	pop	rbx
	.cfi_def_cfa_offset 16
	pop	rbp
	.cfi_def_cfa_offset 8
.LVL159:
	
    # save return value and registers
    mov r11, rax
    push rdi
    push rsi
    push rdx
    push rcx
    push r8
    push r9


    call stackshield_get_old_rip@PLT
    mov rdi, rax
    call stackshield_func_exit@PLT

    # restore return value and registers
    mov rax, r11
    pop r9
    pop r8
    pop rcx
    pop rdx
    pop rsi
    pop rdi
    ret
.LVL160:
.L106:
	.cfi_restore_state
	call	__stack_chk_fail@PLT
.LVL161:
	.cfi_endproc
.LFE39:
	.size	experimental, .-experimental
	.section	.rodata.str1.1
.LC25:
	.string	"Succesful login!"
.LC26:
	.string	"> "
.LC27:
	.string	"show"
.LC28:
	.string	"change"
.LC29:
	.string	"design"
.LC30:
	.string	"view"
.LC31:
	.string	"report"
.LC32:
	.string	"Great!"
.LC33:
	.string	"quit"
.LC34:
	.string	"experimental"
.LC35:
	.string	"Command %s unknown\n"
	.text
	.globl	dashboard
	.type	dashboard, @function
dashboard:
.LFB40:
	.loc 1 275 43 is_stmt 1
	
    .cfi_startproc
    # save arguments
    push rdi
    push rsi
    push rdx
    push rcx
    push r8
    push r9

    call stackshield_get_old_rip@PLT
    mov rdi, rax
    call stackshield_func_enter@PLT

    # restore arguments
    pop r9
    pop r8
    pop rcx
    pop rdx
    pop rsi
    pop rdi
.LVL162:
	push	r13
	.cfi_def_cfa_offset 16
	.cfi_offset 13, -16
	push	r12
	.cfi_def_cfa_offset 24
	.cfi_offset 12, -24
	push	rbp
	.cfi_def_cfa_offset 32
	.cfi_offset 6, -32
	push	rbx
	.cfi_def_cfa_offset 40
	.cfi_offset 3, -40
	sub	rsp, 136
	.cfi_def_cfa_offset 176
	mov	rdx, rsi
	.loc 1 275 43 is_stmt 0
	mov	rax, QWORD PTR fs:40
	mov	QWORD PTR 120[rsp], rax
	xor	eax, eax
	.loc 1 276 5 is_stmt 1
	mov	rsi, rdi
.LVL163:
	mov	rbx, QWORD PTR g_user@GOTPCREL[rip]
	mov	rdi, rbx
.LVL164:
	call	init_user@PLT
.LVL165:
	.loc 1 277 5
	lea	rdi, .LC25[rip]
	call	puts@PLT
.LVL166:
	.loc 1 278 5
	mov	rdi, rbx
# gadgets
	sub rbx, 0x60
	add rbx, 0x60
# -------
	call	[QWORD PTR 40[rbx]]
.LVL167:
	.loc 1 280 5
	.loc 1 281 5
	lea	rdx, 16[rsp]
	mov	ecx, 12
	mov	eax, 0
	mov	rdi, rdx
	rep stosq
	mov	WORD PTR [rdi], 0
	mov	BYTE PTR 2[rdi], 0
	.loc 1 282 5
	.loc 1 282 12 is_stmt 0
	mov	QWORD PTR 8[rsp], 0
	.loc 1 287 9
	lea	r12, .LC26[rip]
	.loc 1 288 9
	mov	rbx, rdx
	.loc 1 290 13
	lea	rbp, .LC27[rip]
	.loc 1 306 13
	lea	r13, 8[rsp]
	jmp	.L108
.L109:
	.loc 1 292 16 is_stmt 1
	.loc 1 292 20 is_stmt 0
	lea	rsi, .LC28[rip]
	mov	rdi, rbx
	call	strstr@PLT
.LVL168:
	.loc 1 292 19
	test	rax, rax
	je	.L111
	.loc 1 293 13 is_stmt 1
	.loc 1 293 19 is_stmt 0
	mov	rax, QWORD PTR g_user@GOTPCREL[rip]
	.loc 1 293 13
	mov	rdi, rax
	call	[QWORD PTR 48[rax]]
.LVL169:
.L108:
	.loc 1 284 5 is_stmt 1
	.loc 1 286 9
	mov	eax, 0
	call	print_menu@PLT
.LVL170:
	.loc 1 287 9
	mov	rdi, r12
	mov	eax, 0
	call	printf@PLT
.LVL171:
	.loc 1 288 9
	mov	edx, 99
	mov	rsi, rbx
	mov	edi, 0
	call	read@PLT
.LVL172:
	.loc 1 290 9
	.loc 1 290 13 is_stmt 0
	mov	rsi, rbp
	mov	rdi, rbx
	call	strstr@PLT
.LVL173:
	.loc 1 290 12
	test	rax, rax
	je	.L109
	.loc 1 291 13 is_stmt 1
	.loc 1 291 19 is_stmt 0
	mov	rax, QWORD PTR g_user@GOTPCREL[rip]
	.loc 1 291 13
	mov	rdi, rax
	call	[QWORD PTR 40[rax]]
.LVL174:
	jmp	.L108
.L111:
	.loc 1 294 16 is_stmt 1
	.loc 1 294 20 is_stmt 0
	lea	rsi, .LC29[rip]
	mov	rdi, rbx
	call	strstr@PLT
.LVL175:
	.loc 1 294 19
	test	rax, rax
	je	.L112
	.loc 1 295 13 is_stmt 1
	.loc 1 295 19 is_stmt 0
	mov	rax, QWORD PTR g_user@GOTPCREL[rip]
	.loc 1 295 13
	mov	rdi, rax
	call	[QWORD PTR 56[rax]]
.LVL176:
	jmp	.L108
.L112:
	.loc 1 296 16 is_stmt 1
	.loc 1 296 20 is_stmt 0
	lea	rsi, .LC30[rip]
	mov	rdi, rbx
	call	strstr@PLT
.LVL177:
	.loc 1 296 19
	test	rax, rax
	je	.L113
	.loc 1 297 13 is_stmt 1
	.loc 1 297 19 is_stmt 0
	mov	rax, QWORD PTR g_user@GOTPCREL[rip]
	.loc 1 297 13
	mov	rdi, rax
	call	[QWORD PTR 64[rax]]
.LVL178:
	jmp	.L108
.L113:
	.loc 1 298 16 is_stmt 1
	.loc 1 298 20 is_stmt 0
	lea	rsi, .LC31[rip]
	mov	rdi, rbx
	call	strstr@PLT
.LVL179:
	.loc 1 298 19
	test	rax, rax
	je	.L114
	.loc 1 299 13 is_stmt 1
	mov	eax, 0
	call	report@PLT
.LVL180:
	.loc 1 300 13
	lea	rdi, .LC32[rip]
	call	puts@PLT
.LVL181:
	jmp	.L108
.L114:
	.loc 1 301 16
	.loc 1 301 20 is_stmt 0
	lea	rsi, .LC33[rip]
	mov	rdi, rbx
	call	strstr@PLT
.LVL182:
	.loc 1 301 19
	test	rax, rax
	jne	.L121
	.loc 1 305 16 is_stmt 1
	.loc 1 305 20 is_stmt 0
	lea	rsi, .LC34[rip]
	mov	rdi, rbx
	call	strstr@PLT
.LVL183:
	.loc 1 305 19
	test	rax, rax
	je	.L117
	.loc 1 306 13 is_stmt 1
	mov	rdi, r13
	call	experimental@PLT
.LVL184:
	jmp	.L108
.L121:
	lea	rax, 16[rsp]
	lea	rdx, 96[rsp]
.L116:
.LVL185:
.LBB13:
	.loc 1 303 44 discriminator 3
	.loc 1 303 54 is_stmt 0 discriminator 3
	mov	BYTE PTR [rax], 0
.LVL186:
	add	rax, 1
.LVL187:
	.loc 1 303 13 discriminator 3
	cmp	rax, rdx
	jne	.L116
.LBE13:
	.loc 1 304 13 is_stmt 1
	mov	rsi, QWORD PTR g_user@GOTPCREL[rip]
	mov	rdi, QWORD PTR 8[rsp]
	call	quit@PLT
.LVL188:
	jmp	.L108
.L117:
	.loc 1 308 13
	mov	rsi, rbx
	lea	rdi, .LC35[rip]
	mov	eax, 0
	call	printf@PLT
.LVL189:
	jmp	.L108
	.cfi_endproc
.LFE40:
	.size	dashboard, .-dashboard
	.section	.rodata.str1.1
.LC36:
	.string	"r"
.LC37:
	.string	"key.txt"
.LC38:
	.string	"%s"
	.section	.rodata.str1.8
	.align 8
.LC39:
	.string	"--- Christmas Management System ---"
	.section	.rodata.str1.1
.LC40:
	.string	"Identity token: "
.LC41:
	.string	"%500s"
.LC42:
	.string	"idtok:"
.LC43:
	.string	"Invalid token..."
.LC44:
	.string	"Invalid id..."
.LC45:
	.string	"key:"
.LC46:
	.string	"Invalid key..."
	.text
	.globl	identify_agent
	.type	identify_agent, @function
identify_agent:
.LFB41:
	.loc 1 314 23
	
    .cfi_startproc
    # save arguments
    push rdi
    push rsi
    push rdx
    push rcx
    push r8
    push r9

    call stackshield_get_old_rip@PLT
    mov rdi, rax
    call stackshield_func_enter@PLT

    # restore arguments
    pop r9
    pop r8
    pop rcx
    pop rdx
    pop rsi
    pop rdi
	push	rbp
	.cfi_def_cfa_offset 16
	.cfi_offset 6, -16
	push	rbx
	.cfi_def_cfa_offset 24
	.cfi_offset 3, -24
	sub	rsp, 296
	.cfi_def_cfa_offset 320
	.loc 1 314 23 is_stmt 0
	mov	rax, QWORD PTR fs:40
	mov	QWORD PTR 280[rsp], rax
	xor	eax, eax
	.loc 1 315 5 is_stmt 1
	.loc 1 315 15 is_stmt 0
	lea	rsi, .LC36[rip]
	lea	rdi, .LC37[rip]
	call	fopen@PLT
.LVL190:
	mov	rbx, rax
.LVL191:
	.loc 1 316 5 is_stmt 1
	.loc 1 317 5
	.loc 1 318 5
	lea	rdx, 208[rsp]
	lea	rsi, .LC38[rip]
	mov	rdi, rax
	mov	eax, 0
.LVL192:
	call	__isoc99_fscanf@PLT
.LVL193:
	.loc 1 319 5
	mov	rdi, rbx
	call	fclose@PLT
.LVL194:
	.loc 1 321 5
	lea	rdi, .LC39[rip]
	call	puts@PLT
.LVL195:
	.loc 1 322 5
	lea	rdi, .LC40[rip]
	mov	eax, 0
	call	printf@PLT
.LVL196:
	.loc 1 323 5
	mov	rbx, QWORD PTR input@GOTPCREL[rip]
.LVL197:
	mov	rsi, rbx
	lea	rdi, .LC41[rip]
	mov	eax, 0
	call	__isoc99_scanf@PLT
.LVL198:
	.loc 1 325 5
	lea	rsi, 128[rsp]
	mov	rdi, rbx
	call	unhexlify@PLT
.LVL199:
	.loc 1 328 5
.LBB14:
	.loc 1 328 10
	.loc 1 328 45 is_stmt 0
	movzx	eax, BYTE PTR 128[rsp]
	.loc 1 328 28
	test	al, al
	je	.L124
	.loc 1 329 9 is_stmt 1
	.loc 1 329 27 is_stmt 0
	xor	al, BYTE PTR 208[rsp]
	mov	BYTE PTR 128[rsp], al
.LVL200:
	lea	rax, 129[rsp]
	lea	rcx, 209[rsp]
	lea	rsi, 192[rsp]
.LVL201:
.L132:
	.loc 1 328 45 discriminator 3
	movzx	edx, BYTE PTR [rax]
	.loc 1 328 28 discriminator 3
	test	dl, dl
	je	.L124
	.loc 1 329 9 is_stmt 1 discriminator 4
	.loc 1 329 27 is_stmt 0 discriminator 4
	xor	dl, BYTE PTR [rcx]
	mov	BYTE PTR [rax], dl
.LVL202:
	add	rax, 1
.LVL203:
	add	rcx, 1
	.loc 1 328 5 discriminator 4
	cmp	rax, rsi
	jne	.L132
.L124:
.LBE14:
	.loc 1 332 5 is_stmt 1
	.loc 1 332 15 is_stmt 0
	lea	rbp, 128[rsp]
	lea	rsi, .LC42[rip]
	mov	rdi, rbp
	call	strstr@PLT
.LVL204:
	mov	rbx, rax
.LVL205:
	.loc 1 333 5 is_stmt 1
	.loc 1 333 15 is_stmt 0
	mov	esi, 124
	mov	rdi, rbp
	call	strchr@PLT
.LVL206:
	mov	rdx, rax
.LVL207:
	.loc 1 334 5 is_stmt 1
	.loc 1 334 8 is_stmt 0
	test	rbx, rbx
	je	.L134
	test	rax, rax
	je	.L134
	.loc 1 338 5 is_stmt 1
	.loc 1 338 10 is_stmt 0
	mov	BYTE PTR [rax], 0
	.loc 1 339 5 is_stmt 1
	.loc 1 339 27 is_stmt 0
	lea	rsi, 6[rbx]
.LVL208:
	.loc 1 340 5 is_stmt 1
	.loc 1 340 9 is_stmt 0
	mov	rcx, -1
	mov	eax, 0
.LVL209:
	mov	rdi, rsi
	repnz scasb
.LVL210:
	.loc 1 340 8
	cmp	rcx, -7
	je	.L129
	.loc 1 341 9 is_stmt 1
	lea	rdi, .LC44[rip]
	call	printf@PLT
.LVL211:
	.loc 1 342 9
.L122:
	.loc 1 358 1 is_stmt 0
	mov	rax, QWORD PTR 280[rsp]
	xor	rax, QWORD PTR fs:40
	jne	.L136
	add	rsp, 296
	.cfi_remember_state
	.cfi_def_cfa_offset 24
	pop	rbx
	.cfi_def_cfa_offset 16
	pop	rbp
	.cfi_def_cfa_offset 8
	
    # save return value and registers
    mov r11, rax
    push rdi
    push rsi
    push rdx
    push rcx
    push r8
    push r9


    call stackshield_get_old_rip@PLT
    mov rdi, rax
    call stackshield_func_exit@PLT

    # restore return value and registers
    mov rax, r11
    pop r9
    pop r8
    pop rcx
    pop rdx
    pop rsi
    pop rdi
    ret
.LVL212:
.L134:
	.cfi_restore_state
	.loc 1 335 9 is_stmt 1
	lea	rdi, .LC43[rip]
	mov	eax, 0
.LVL213:
	call	printf@PLT
.LVL214:
	.loc 1 336 9
	jmp	.L122
.LVL215:
.L129:
	.loc 1 345 5
	.loc 1 346 5
	mov	eax, DWORD PTR 6[rbx]
	mov	DWORD PTR [rsp], eax
	movzx	eax, WORD PTR 4[rsi]
	mov	WORD PTR 4[rsp], ax
	.loc 1 347 5
	.loc 1 347 10 is_stmt 0
	mov	BYTE PTR [rdx], 124
	.loc 1 349 5 is_stmt 1
	.loc 1 350 5
	.loc 1 350 9 is_stmt 0
	lea	rdi, 128[rsp]
	lea	rsi, .LC45[rip]
	call	strstr@PLT
.LVL216:
	.loc 1 351 5 is_stmt 1
	.loc 1 351 8 is_stmt 0
	test	rax, rax
	je	.L137
	.loc 1 355 5 is_stmt 1
	lea	rsi, 64[rsp]
	movdqu	xmm0, XMMWORD PTR 4[rax]
	movaps	XMMWORD PTR 64[rsp], xmm0
	movdqu	xmm1, XMMWORD PTR 20[rax]
	movaps	XMMWORD PTR 80[rsp], xmm1
	.loc 1 357 5
	mov	rdi, rsp
	call	dashboard@PLT
.LVL217:
	jmp	.L122
.LVL218:
.L137:
	.loc 1 352 9
	lea	rdi, .LC46[rip]
	call	printf@PLT
.LVL219:
	.loc 1 353 9
	jmp	.L122
.L136:
	.loc 1 358 1 is_stmt 0
	call	__stack_chk_fail@PLT
.LVL220:
	.cfi_endproc
.LFE41:
	.size	identify_agent, .-identify_agent
	.globl	main
	.type	main, @function
main:
.LFB42:
	.loc 1 360 12 is_stmt 1
	
    .cfi_startproc
    # save arguments
    push rdi
    push rsi
    push rdx
    push rcx
    push r8
    push r9

    call stackshield_get_old_rip@PLT
    mov rdi, rax
    call stackshield_func_enter@PLT

    # restore arguments
    pop r9
    pop r8
    pop rcx
    pop rdx
    pop rsi
    pop rdi
	push	rbx
	.cfi_def_cfa_offset 16
	.cfi_offset 3, -16
	sub	rsp, 16
	.cfi_def_cfa_offset 32
	.loc 1 360 12 is_stmt 0
	mov	ebx, 40
	mov	rax, QWORD PTR fs:[rbx]
	mov	QWORD PTR 8[rsp], rax
	xor	eax, eax
	.loc 1 361 5 is_stmt 1
	call	init@PLT
.LVL221:
	.loc 1 363 5
	mov	eax, 0
	call	print_logo@PLT
.LVL222:
	.loc 1 364 5
	mov	eax, 0
	call	identify_agent@PLT
# gadgets
	mov eax, 0
	test eax, eax
	je .LVL223
	mov rsi, 8[rbx]
	call rax
# ---------
.LVL223:
	.loc 1 366 5
	.loc 1 367 1 is_stmt 0
	mov	rdx, QWORD PTR 8[rsp]
	xor	rdx, QWORD PTR fs:[rbx]
	jne	.L141
	mov	eax, 0
	add	rsp, 16
	.cfi_remember_state
	.cfi_def_cfa_offset 16
	pop	rbx
	.cfi_def_cfa_offset 8
	
    # save return value and registers
    mov r11, rax
    push rdi
    push rsi
    push rdx
    push rcx
    push r8
    push r9


    call stackshield_get_old_rip@PLT
    mov rdi, rax
    call stackshield_func_exit@PLT

    # restore return value and registers
    mov rax, r11
    pop r9
    pop r8
    pop rcx
    pop rdx
    pop rsi
    pop rdi

# gadgets
	mov rax, 0
	test rax, rax
	je .SOMELABEL
	mov rax, 8[rbx]
	syscall

.SOMELABEL:
    ret
.L141:
	.cfi_restore_state
	call	__stack_chk_fail@PLT
.LVL224:
	.cfi_endproc
.LFE42:
	.size	main, .-main
	.comm	input,600,32
	.comm	g_user,880,32
	.comm	terminal_cols,4,4
	.comm	terminal_rows,4,4
	.globl	logo
	.data
	.align 32
	.type	logo, @object
	.size	logo, 890
logo:
	.ascii	"         *             , \n                       _/^\\_ \n "
	.ascii	"                     <     > \n     *                 /.-.\\"
	.ascii	"         *\n              *        `/&\\`                   "
	.ascii	"*\n                      ,@.*;@,\n                     /_o.I"
	.ascii	" %_\\    *\n        *           (`'--:o(_@;\n               "
	.ascii	"    /`;--.,__ `')             *\n                  ;@`o %% O"
	.ascii	",*`'`&\\ \n            *    (`'--)_@ ;o %%'()\\      *\n    "
	.ascii	"             /`;--._`''--._O'@;\n                /&*,()~o`;-"
	.ascii	".,_ `\"\"`)\n     *          /`,@ ;+& () o*`;-';\\ \n       "
	.ascii	"        (`\"\"--.,_0 +% @' &()\\ \n               /-.,_    `"
	.ascii	"`''--....-'`)  *\n          *    /@%%;o`:;'--,.__   __.'\\ \n"
	.ascii	"  "
	.string	"            ;*,&(); @ % &^;~`\"`o;@();         *\n              /(); o^~; & ().o@*&`;&%O\n        jgs   `\"=\"==\"\"==,,,.,=\"==\"===\"`\n           __.----.(\\-''#####---...___...-----._\n         '`         \\)_`\"\"\"\"\"`\n                 .--' ')\n               o(  )_-\\\n"
	.text
.Letext0:
	.file 2 "/usr/include/bits/types.h"
	.file 3 "/usr/include/curses.h"
	.file 4 "/usr/lib/gcc/x86_64-redhat-linux/8/include/stddef.h"
	.file 5 "/usr/include/bits/libio.h"
	.file 6 "/usr/include/bits/types/FILE.h"
	.file 7 "/usr/include/stdio.h"
	.file 8 "/usr/include/bits/sys_errlist.h"
	.file 9 "/usr/include/time.h"
	.file 10 "/usr/include/unistd.h"
	.file 11 "/usr/include/bits/getopt_core.h"
	.file 12 "/usr/include/string.h"
	.file 13 "<built-in>"
	.file 14 "/usr/include/stdlib.h"
	.section	.note.GNU-stack,"",@progbits
